LX51 LINKER/LOCATER V4.66.97.0                                                          05/18/2022  18:07:15  PAGE 1


LX51 LINKER/LOCATER V4.66.97.0, INVOKED BY:
D:\KEIL_V5\44444444444\C51\BIN\LX51.EXE .\Objects\main.obj, .\Objects\usart.obj, .\Objects\key.obj, .\Objects\AT24C02.ob
>> j, .\Objects\ADS1015.obj, .\Objects\I2C.obj, .\Objects\P8563.obj, .\Objects\oled.obj, .\Objects\Conf_tny.obj, ..\TINY
>> \RTX51TNY.LIB TO .\Objects\temp_show RTX51TINY PRINT (.\Listings\temp_show.map) DISABLEWARNING (15) REMOVEUNUSED




PROGRAM RECURSIONS REMOVED FROM CALL TREE
=========================================
+--> OLED
|  | _OLED_WR_BYTE/OLED
<--+ _WRITE_IIC_DATA/OLED


+--> OLED
|  | _OLED_WR_BYTE/OLED
|  | _WRITE_IIC_DATA/OLED
|  | IIC_WAIT_ACK/OLED
<--+ _WRITE_IIC_BYTE/OLED


+--> OLED
|  | _OLED_WR_BYTE/OLED
<--+ _WRITE_IIC_COMMAND/OLED



CPU MODE:     8051 MODE
MEMORY MODEL: SMALL WITH FLOATING POINT ARITHMETIC


INPUT MODULES INCLUDED:
  .\Objects\main.obj (MAIN)
         COMMENT TYPE 0: C51 V9.60.0.0
  .\Objects\usart.obj (USART)
         COMMENT TYPE 0: C51 V9.60.0.0
  .\Objects\key.obj (KEY)
         COMMENT TYPE 0: C51 V9.60.0.0
  .\Objects\AT24C02.obj (AT24C02)
         COMMENT TYPE 0: C51 V9.60.0.0
  .\Objects\ADS1015.obj (ADS1015)
         COMMENT TYPE 0: C51 V9.60.0.0
  .\Objects\I2C.obj (I2C)
         COMMENT TYPE 0: C51 V9.60.0.0
  .\Objects\P8563.obj (P8563)
         COMMENT TYPE 0: C51 V9.60.0.0
  .\Objects\oled.obj (OLED)
         COMMENT TYPE 0: C51 V9.60.0.0
  .\Objects\Conf_tny.obj (?RTX51_TINY_KERNAL)
         COMMENT TYPE 1: A51 / ASM51 Assembler
  ..\TINY\RTX51TNY.LIB (?RTX51_TINY_OS_CREATE)
         COMMENT TYPE 1: A51 / ASM51 Assembler
  ..\TINY\RTX51TNY.LIB (?RTX51_TINY_OS_DELETE)
         COMMENT TYPE 1: A51 / ASM51 Assembler
  ..\TINY\RTX51TNY.LIB (?RTX51_TINY_OS_SEND_SIGNAL)
         COMMENT TYPE 1: A51 / ASM51 Assembler
  ..\TINY\RTX51TNY.LIB (?RTX51_TINY_OS_WAIT)
         COMMENT TYPE 1: A51 / ASM51 Assembler
  D:\KEIL_V5\44444444444\C51\LIB\C51FPS.LIB (?C?FPADD)
         COMMENT TYPE 1: A51 / ASM51 Assembler
  D:\KEIL_V5\44444444444\C51\LIB\C51FPS.LIB (?C?FPMUL)
         COMMENT TYPE 1: A51 / ASM51 Assembler
  D:\KEIL_V5\44444444444\C51\LIB\C51FPS.LIB (?C?FCAST)
         COMMENT TYPE 1: A51 / ASM51 Assembler
  D:\KEIL_V5\44444444444\C51\LIB\C51FPS.LIB (?C?CASTF)
LX51 LINKER/LOCATER V4.66.97.0                                                        05/18/2022  18:07:15  PAGE 2


         COMMENT TYPE 1: A51 / ASM51 Assembler
  D:\KEIL_V5\44444444444\C51\LIB\C51FPS.LIB (?C?FPGETOPN)
         COMMENT TYPE 1: A51 / ASM51 Assembler
  D:\KEIL_V5\44444444444\C51\LIB\C51S.LIB (?C_STARTUP)
         COMMENT TYPE 1: A51 / ASM51 Assembler
  D:\KEIL_V5\44444444444\C51\LIB\C51S.LIB (?C?CLDPTR)
         COMMENT TYPE 1: A51 / ASM51 Assembler
  D:\KEIL_V5\44444444444\C51\LIB\C51S.LIB (?C?CLDOPTR)
         COMMENT TYPE 1: A51 / ASM51 Assembler
  D:\KEIL_V5\44444444444\C51\LIB\C51S.LIB (?C?CSTPTR)
         COMMENT TYPE 1: A51 / ASM51 Assembler
  D:\KEIL_V5\44444444444\C51\LIB\C51S.LIB (?C?IMUL)
         COMMENT TYPE 1: A51 / ASM51 Assembler
  D:\KEIL_V5\44444444444\C51\LIB\C51S.LIB (?C?UIDIV)
         COMMENT TYPE 1: A51 / ASM51 Assembler
  D:\KEIL_V5\44444444444\C51\LIB\C51S.LIB (?C?SIDIV)
         COMMENT TYPE 1: A51 / ASM51 Assembler
  D:\KEIL_V5\44444444444\C51\LIB\C51S.LIB (?C?LNEG)
         COMMENT TYPE 1: A51 / ASM51 Assembler
  D:\KEIL_V5\44444444444\C51\LIB\C51S.LIB (?C_INIT)
         COMMENT TYPE 1: A51 / ASM51 Assembler


ACTIVE MEMORY CLASSES OF MODULE:  .\Objects\temp_show (MAIN)

BASE        START       END         USED      MEMORY CLASS
==========================================================
C:000000H   C:000000H   C:00FFFFH   001E3FH   CODE
I:000000H   I:000000H   I:00007FH   000062H   DATA
C:000000H   C:000000H   C:00FFFFH   0002AFH   CONST
X:000000H   X:000000H   X:00FFFFH   00006EH   XDATA
I:000020H.0 I:000020H.0 I:00002FH.7 000001H.0 BIT
I:000000H   I:000000H   I:0000FFH   000019H   IDATA


TASK TABLE OF MODULE:  .\Objects\temp_show (MAIN)

TASKID   PRIORITY   REG-BANK   SEGMENT NAME (OFFSET)
====================================================
0        0          0          ?PR?MAINTASK?MAIN (00H)
1        0          0          ?PR?ADCTASK?MAIN (00H)
2        0          0          ?PR?UARTTASK?MAIN (00H)
3        0          0          ?PR?KEYTASK?MAIN (00H)
4        0          0          ?PR?OLEDTASK?MAIN (00H)
5        0          0          ?PR?TIMETASK?MAIN (00H)
6        0          0          ?PR?BEEPTASK?MAIN (00H)
7        0          0          ?PR?NUMSETTASK?MAIN (00H)



MEMORY MAP OF MODULE:  .\Objects\temp_show (MAIN)


START     STOP      LENGTH    ALIGN  RELOC    MEMORY CLASS   SEGMENT NAME
=========================================================================

* * * * * * * * * * *   D A T A   M E M O R Y   * * * * * * * * * * * * *
000000H   000007H   000008H   ---    AT..     DATA           "REG BANK 0"
000008H   00000DH   000006H   ---    OFFS..   DATA           ?DA??RTX51_TINY_KERNAL?0
00000EH   000019H   00000CH   BYTE   UNIT     DATA           ?DT?MAIN
00001AH.0 00001FH.7 000006H.0 ---    ---      **GAP**
000020H.0 000020H.5 000000H.6 BIT    UNIT     BIT            _BIT_GROUP_
000020H.6 000020H.6 000000H.1 BIT    UNIT     BIT            ?BI?I2C
000020H.7 000020H.7 000000H.1 BIT    UNIT     BIT            ?RTX?BITS
000021H   000068H   000048H   BYTE   UNIT     DATA           _DATA_GROUP_
LX51 LINKER/LOCATER V4.66.97.0                                                        05/18/2022  18:07:15  PAGE 3


000069H   000078H   000010H   BYTE   UNIT     IDATA          ?RTX?TASKSTATE?S
000079H   000080H   000008H   BYTE   UNIT     IDATA          ?RTX?TASKSP?S
000081H   000081H   000001H   BYTE   UNIT     IDATA          ?STACK

* * * * * * * * * * *   C O D E   M E M O R Y   * * * * * * * * * * * * *
000000H   000002H   000003H   ---    OFFS..   CODE           ?CO??C_STARTUP?0
000003H   000009H   000007H   BYTE   UNIT     CODE           ?PR?_DELAY_MS?MAIN
00000AH   00000AH   000001H   ---    ---      **GAP**
00000BH   00000DH   000003H   ---    OFFS..   CODE           ?CO??RTX51_TINY_KERNAL?1
00000EH   000020H   000013H   BYTE   UNIT     CODE           ?PR?_SEND_STRING?USART
000021H   000022H   000002H   ---    ---      **GAP**
000023H   000025H   000003H   BYTE   OFFS..   CODE           ?USART?00023
000026H   0003E5H   0003C0H   BYTE   UNIT     CODE           ?C?LIB_CODE
0003E6H   0007A4H   0003BFH   BYTE   UNIT     CODE           ?PR?OLEDTASK?MAIN
0007A5H   000AAEH   00030AH   BYTE   UNIT     CODE           ?RTX?CODE
000AAFH   000D57H   0002A9H   BYTE   UNIT     CODE           ?PR?KEYTASK?MAIN
000D58H   000FDDH   000286H   BYTE   UNIT     CODE           ?PR?UARTTASK?MAIN
000FDEH   00121CH   00023FH   BYTE   UNIT     CODE           ?PR?MAIN
00121DH   0013CBH   0001AFH   BYTE   UNIT     CODE           ?PR?NUMSETTASK?MAIN
0013CCH   0014B8H   0000EDH   BYTE   UNIT     CODE           ?PR?BEEPTASK?MAIN
0014B9H   00157FH   0000C7H   BYTE   UNIT     CODE           ?PR?MAINTASK?MAIN
001580H   001634H   0000B5H   BYTE   UNIT     CODE           ?PR?ADCTASK?MAIN
001635H   0016C0H   00008CH   BYTE   UNIT     CODE           ?PR?KEYDOWN?KEY
0016C1H   00174CH   00008CH   BYTE   UNIT     CODE           ?C_C51STARTUP
00174DH   0017CFH   000083H   BYTE   UNIT     CODE           ?PR?OLED_INIT?OLED
0017D0H   001839H   00006AH   BYTE   UNIT     CODE           ?PR?_OLED_SHOWNUM?OLED
00183AH   001898H   00005FH   BYTE   UNIT     CODE           ?PR?USART_RX?USART
001899H   0018F5H   00005DH   BYTE   UNIT     CODE           ?C_INITSEG
0018F6H   00194EH   000059H   BYTE   UNIT     CODE           ?PR?TIMETASK?MAIN
00194FH   0019A4H   000056H   BYTE   UNIT     CODE           ?PR?_OLED_SHOWCHAR?OLED
0019A5H   0019F2H   00004EH   BYTE   UNIT     CODE           ?PR?_I2CSENDBYTE?AT24C02
0019F3H   001A3DH   00004BH   BYTE   UNIT     CODE           ?PR?_P8563_RCVSTR?P8563
001A3EH   001A87H   00004AH   BYTE   UNIT     CODE           ?PR?_IRCVSTR?I2C
001A88H   001ACFH   000048H   BYTE   UNIT     CODE           ?PR?_SENDBYTE?I2C
001AD0H   001B15H   000046H   BYTE   UNIT     CODE           ?PR?OLED
001B16H   001B5AH   000045H   BYTE   UNIT     CODE           ?PR?_START_CONVERSION?ADS1015
001B5BH   001B9EH   000044H   BYTE   UNIT     CODE           ?PR?_OLED_SHOWSTRING?OLED
001B9FH   001BD5H   000037H   BYTE   UNIT     CODE           ?PR?OLED_CLEAR?OLED
001BD6H   001C07H   000032H   BYTE   UNIT     CODE           ?PR?_ISENDSTR?I2C
001C08H   001C36H   00002FH   BYTE   UNIT     CODE           ?PR?I2CREADBYTE?AT24C02
001C37H   001C63H   00002DH   BYTE   UNIT     CODE           ?PR?RCVBYTE?I2C
001C64H   001C8FH   00002CH   BYTE   UNIT     CODE           ?PR?_OLED_SET_POS?OLED
001C90H   001CB5H   000026H   BYTE   UNIT     CODE           ?PR?_WRITE_IIC_BYTE?OLED
001CB6H   001CD9H   000024H   BYTE   UNIT     CODE           ?PR?DELAY10US?AT24C02
001CDAH   001CFBH   000022H   BYTE   UNIT     CODE           ?PR?_AT24C02READ?AT24C02
001CFCH   001D15H   00001AH   BYTE   UNIT     CODE           ?PR?P8563
001D16H   001D2EH   000019H   BYTE   UNIT     CODE           ?PR?_AT24C02WRITE?AT24C02
001D2FH   001D46H   000018H   BYTE   UNIT     CODE           ?PR?ACK_I2C?I2C
001D47H   001D5EH   000018H   BYTE   UNIT     CODE           ?PR?_OLED_POW?OLED
001D5FH   001D74H   000016H   BYTE   UNIT     CODE           ?PR?USART_INIT?USART
001D75H   001D8AH   000016H   BYTE   UNIT     CODE           ?PR?START_I2C?I2C
001D8BH   001D9BH   000011H   BYTE   UNIT     CODE           ?PR?STOP_I2C?I2C
001D9CH   001DACH   000011H   BYTE   UNIT     CODE           ?PR?_OLED_WR_BYTE?OLED
001DADH   001DBCH   000010H   BYTE   UNIT     CODE           ?PR?I2C
001DBDH   001DCCH   000010H   BYTE   UNIT     CODE           ?PR?IIC_WAIT_ACK?OLED
001DCDH   001DDCH   000010H   BYTE   UNIT     CODE           ?RTX?TASKENT?S
001DDDH   001DEBH   00000FH   BYTE   UNIT     CODE           ?PR?I2CSTART?AT24C02
001DECH   001DFAH   00000FH   BYTE   UNIT     CODE           ?PR?_P8563_SENDSTR?P8563
001DFBH   001E06H   00000CH   BYTE   UNIT     CODE           ?PR?_SEND_BYTE?USART
001E07H   001E11H   00000BH   BYTE   UNIT     CODE           ?PR?_READ_CONVERSION?ADS1015
001E12H   001E1CH   00000BH   BYTE   UNIT     CODE           ?PR?_WRITE_IIC_COMMAND?OLED
001E1DH   001E27H   00000BH   BYTE   UNIT     CODE           ?PR?_WRITE_IIC_DATA?OLED
001E28H   001E31H   00000AH   BYTE   UNIT     CODE           ?PR?I2CSTOP?AT24C02
001E32H   001E3AH   000009H   BYTE   UNIT     CODE           ?PR?IIC_START?OLED
001E3BH   001E41H   000007H   BYTE   UNIT     CODE           ?PR?IIC_STOP?OLED
LX51 LINKER/LOCATER V4.66.97.0                                                        05/18/2022  18:07:15  PAGE 4


001E42H   002069H   000228H   BYTE   UNIT     CONST          ?CO?OLED
00206AH   0020F0H   000087H   BYTE   UNIT     CONST          ?CO?MAIN

* * * * * * * * * * *  X D A T A   M E M O R Y  * * * * * * * * * * * * *
000000H   000063H   000064H   BYTE   UNIT     XDATA          ?XD?MAIN
000064H   00006DH   00000AH   BYTE   UNIT     XDATA          _XDATA_GROUP_

* * * * * * * * *   R E M O V E D     S E G M E N T S   * * * * * * * *
   *DEL*:           000017H   BYTE   UNIT     CODE           ?PR?_ISENDBYTE?I2C
   *DEL*:           000033H   BYTE   UNIT     CODE           ?PR?_MRCVBYTE?I2C
   *DEL*:           000005H   BYTE   UNIT     DATA           ?DT?_MRCVBYTE?I2C
   *DEL*:           000029H   BYTE   UNIT     CODE           ?PR?_MSENDSTR?I2C
   *DEL*:           000005H   BYTE   UNIT     DATA           ?DT?_MSENDSTR?I2C
   *DEL*:           000009H   BYTE   UNIT     CODE           ?PR?OLED_DISPLAY_ON?OLED
   *DEL*:           000010H   BYTE   UNIT     CODE           ?PR?OLED_DISPLAY_OFF?OLED
   *DEL*:           000038H   BYTE   UNIT     CODE           ?PR?OLED_ON?OLED
   *DEL*:           000001H   BYTE   UNIT     DATA           ?DT?OLED_ON?OLED



OVERLAY MAP OF MODULE:   .\Objects\temp_show (MAIN)


FUNCTION/MODULE                 BIT_GROUP   DATA_GROUP   XDATA_GROUP
--> CALLED FUNCTION/MODULE     START  STOP  START  STOP  START  STOP
====================================================================
MAINTASK/MAIN                  ----- -----  0021H 0021H  ----- -----
  +--> OLED_INIT/OLED
  +--> USART_INIT/USART
  +--> _AT24C02READ/AT24C02
  +--> MAIN
  +--> _DELAY_MS/MAIN

OLED_INIT/OLED                 ----- -----  ----- -----  ----- -----
  +--> OLED
  +--> _OLED_WR_BYTE/OLED

OLED                           ----- -----  ----- -----  ----- -----
  +--> _OLED_WR_BYTE/OLED
  +--> IIC_START/OLED
  +--> _WRITE_IIC_BYTE/OLED
  +--> IIC_WAIT_ACK/OLED

_OLED_WR_BYTE/OLED             ----- -----  ----- -----  ----- -----
  +--> _WRITE_IIC_DATA/OLED
  +--> _WRITE_IIC_COMMAND/OLED

_WRITE_IIC_DATA/OLED           ----- -----  ----- -----  ----- -----
  +--> OLED
  +--> IIC_WAIT_ACK/OLED
  +--> IIC_STOP/OLED

IIC_WAIT_ACK/OLED              ----- -----  ----- -----  ----- -----
  +--> _WRITE_IIC_BYTE/OLED

_WRITE_IIC_BYTE/OLED           ----- -----  ----- -----  ----- -----
  +--> OLED

IIC_STOP/OLED                  ----- -----  ----- -----  ----- -----

_WRITE_IIC_COMMAND/OLED        ----- -----  ----- -----  ----- -----
  +--> OLED
  +--> IIC_WAIT_ACK/OLED
  +--> IIC_STOP/OLED

LX51 LINKER/LOCATER V4.66.97.0                                                        05/18/2022  18:07:15  PAGE 5


IIC_START/OLED                 ----- -----  ----- -----  ----- -----

USART_INIT/USART               ----- -----  ----- -----  ----- -----

_AT24C02READ/AT24C02           ----- -----  ----- -----  ----- -----
  +--> I2CSTART/AT24C02
  +--> _I2CSENDBYTE/AT24C02
  +--> I2CREADBYTE/AT24C02
  +--> I2CSTOP/AT24C02

I2CSTART/AT24C02               ----- -----  ----- -----  ----- -----
  +--> DELAY10US/AT24C02

DELAY10US/AT24C02              ----- -----  ----- -----  ----- -----

_I2CSENDBYTE/AT24C02           ----- -----  ----- -----  ----- -----
  +--> DELAY10US/AT24C02

I2CREADBYTE/AT24C02            ----- -----  ----- -----  ----- -----
  +--> DELAY10US/AT24C02

I2CSTOP/AT24C02                ----- -----  ----- -----  ----- -----
  +--> DELAY10US/AT24C02

MAIN                           ----- -----  ----- -----  ----- -----

_DELAY_MS/MAIN                 ----- -----  ----- -----  ----- -----

*** NEW ROOT *****************

ADCTASK/MAIN                   ----- -----  0022H 0027H  ----- -----
  +--> _START_CONVERSION/ADS1015
  +--> _DELAY_MS/MAIN
  +--> _READ_CONVERSION/ADS1015
  +--> MAIN

_START_CONVERSION/ADS1015      20H.0 20H.0  0028H 0029H  ----- -----
  +--> _ISENDSTR/I2C

_ISENDSTR/I2C                  ----- -----  0063H 0068H  ----- -----
  +--> _SENDBYTE/I2C
  +--> I2C
  +--> STOP_I2C/I2C

_SENDBYTE/I2C                  ----- -----  ----- -----  ----- -----
  +--> START_I2C/I2C

START_I2C/I2C                  ----- -----  ----- -----  ----- -----

I2C                            ----- -----  ----- -----  ----- -----
  +--> RCVBYTE/I2C

RCVBYTE/I2C                    ----- -----  ----- -----  ----- -----

STOP_I2C/I2C                   ----- -----  ----- -----  ----- -----

_READ_CONVERSION/ADS1015       20H.0 20H.0  ----- -----  ----- -----
  +--> _IRCVSTR/I2C

_IRCVSTR/I2C                   ----- -----  0056H 005BH  ----- -----
  +--> START_I2C/I2C
  +--> _SENDBYTE/I2C
  +--> I2C
  +--> ACK_I2C/I2C
  +--> STOP_I2C/I2C
LX51 LINKER/LOCATER V4.66.97.0                                                        05/18/2022  18:07:15  PAGE 6



ACK_I2C/I2C                    20H.4 20H.4  ----- -----  ----- -----

*** NEW ROOT *****************

UARTTASK/MAIN                  ----- -----  ----- -----  0064H 006DH
  +--> _SEND_STRING/USART
  +--> MAIN
  +--> _P8563_SENDSTR/P8563
  +--> _AT24C02WRITE/AT24C02
  +--> _DELAY_MS/MAIN

_SEND_STRING/USART             ----- -----  ----- -----  ----- -----
  +--> _SEND_BYTE/USART

_SEND_BYTE/USART               ----- -----  ----- -----  ----- -----

_P8563_SENDSTR/P8563           20H.5 20H.5  005EH 0062H  ----- -----
  +--> _ISENDSTR/I2C

_AT24C02WRITE/AT24C02          ----- -----  ----- -----  ----- -----
  +--> I2CSTART/AT24C02
  +--> _I2CSENDBYTE/AT24C02
  +--> I2CSTOP/AT24C02

*** NEW ROOT *****************

KEYTASK/MAIN                   ----- -----  003BH 003BH  ----- -----
  +--> KEYDOWN/KEY
  +--> MAIN
  +--> _DELAY_MS/MAIN

KEYDOWN/KEY                    ----- -----  003CH 003DH  ----- -----
  +--> _DELAY_MS/MAIN

*** NEW ROOT *****************

OLEDTASK/MAIN                  ----- -----  003EH 0042H  ----- -----
  +--> OLED_CLEAR/OLED
  +--> _OLED_SHOWSTRING/OLED
  +--> MAIN
  +--> _OLED_SHOWNUM/OLED
  +--> _DELAY_MS/MAIN
  +--> _OLED_SHOWCHAR/OLED

OLED_CLEAR/OLED                ----- -----  0043H 0043H  ----- -----
  +--> OLED
  +--> _OLED_WR_BYTE/OLED

_OLED_SHOWSTRING/OLED          ----- -----  0043H 0049H  ----- -----
  +--> _OLED_SHOWCHAR/OLED

_OLED_SHOWCHAR/OLED            ----- -----  004CH 0050H  ----- -----
  +--> _OLED_SET_POS/OLED
  +--> _OLED_WR_BYTE/OLED

_OLED_SET_POS/OLED             ----- -----  ----- -----  ----- -----
  +--> _OLED_WR_BYTE/OLED

_OLED_SHOWNUM/OLED             ----- -----  0043H 004BH  ----- -----
  +--> _OLED_POW/OLED
  +--> OLED
  +--> _OLED_SHOWCHAR/OLED

_OLED_POW/OLED                 ----- -----  004CH 004CH  ----- -----
LX51 LINKER/LOCATER V4.66.97.0                                                        05/18/2022  18:07:15  PAGE 7



*** NEW ROOT *****************

TIMETASK/MAIN                  ----- -----  ----- -----  ----- -----
  +--> _P8563_RCVSTR/P8563
  +--> MAIN
  +--> _DELAY_MS/MAIN

_P8563_RCVSTR/P8563            20H.3 20H.3  0051H 0055H  ----- -----
  +--> _IRCVSTR/I2C
  +--> P8563

P8563                          ----- -----  ----- -----  ----- -----

*** NEW ROOT *****************

BEEPTASK/MAIN                  ----- -----  005CH 005DH  ----- -----
  +--> MAIN

*** NEW ROOT *****************

NUMSETTASK/MAIN                ----- -----  ----- -----  ----- -----
  +--> MAIN
  +--> _P8563_SENDSTR/P8563
  +--> _DELAY_MS/MAIN
  +--> _AT24C02WRITE/AT24C02

*** NEW ROOT *****************

USART_RX/USART                 ----- -----  ----- -----  ----- -----

*** NEW ROOT *****************

?C_C51STARTUP                  ----- -----  ----- -----  ----- -----
  +--> ?C_INITSEG

?C_INITSEG                     ----- -----  ----- -----  ----- -----



PUBLIC SYMBOLS OF MODULE:  .\Objects\temp_show (MAIN)


      VALUE       CLASS    TYPE      PUBLIC SYMBOL NAME
      =================================================
      00000056H   DATA     BYTE      ?_IRcvStr?BYTE
      00000063H   DATA     BYTE      ?_ISendStr?BYTE
*DEL*:00000000H   DATA     BYTE      ?_mRcvByte?BYTE
*DEL*:00000000H   DATA     BYTE      ?_mSendStr?BYTE
      0000004CH   DATA     BYTE      ?_OLED_ShowChar?BYTE
      00000043H   DATA     BYTE      ?_OLED_ShowNum?BYTE
      00000043H   DATA     BYTE      ?_OLED_ShowString?BYTE
      00000051H   DATA     BYTE      ?_P8563_RcvStr?BYTE
      0000005EH   DATA     BYTE      ?_P8563_SendStr?BYTE
      01000262H   CODE     ---       ?C?CASTF
      010002FCH   CODE     ---       ?C?CLDOPTR
      010002E3H   CODE     ---       ?C?CLDPTR
      00000000H   NUMBER   ---       ?C?CODESEG
      01000329H   CODE     ---       ?C?CSTPTR
      0100022EH   CODE     ---       ?C?FCASTC
      01000229H   CODE     ---       ?C?FCASTI
      01000224H   CODE     ---       ?C?FCASTL
      0100002DH   CODE     ---       ?C?FPADD
      01000299H   CODE     ---       ?C?FPGETOPN2
      0100011EH   CODE     ---       ?C?FPMUL
LX51 LINKER/LOCATER V4.66.97.0                                                        05/18/2022  18:07:15  PAGE 8


      010002CEH   CODE     ---       ?C?FPNANRESULT
      010002D8H   CODE     ---       ?C?FPOVERFLOW
      010002B0H   CODE     ---       ?C?FPRESULT
      010002C4H   CODE     ---       ?C?FPRESULT2
      01000029H   CODE     ---       ?C?FPSUB
      010002D5H   CODE     ---       ?C?FPUNDERFLOW
      0100033BH   CODE     ---       ?C?IMUL
      010003D8H   CODE     ---       ?C?LNEG
      010003A2H   CODE     ---       ?C?SIDIV
      0100034DH   CODE     ---       ?C?UIDIV
      00000000H   NUMBER   ---       ?C?XDATASEG
      01001708H   CODE     ---       ?C_START
      01000000H   CODE     ---       ?C_STARTUP
      010007F4H   CODE     ---       ?RTX?SET_ISR
      00000008H   NUMBER   ---       ?RTX_CNTTASK
      0000000CH   DATA     ---       ?RTX_CURRENTTASK
      00000000H   NUMBER   ---       ?RTX_FTASKCONTEXT?1
      00000000H   NUMBER   ---       ?RTX_FTASKCONTEXT?2
      00000000H   NUMBER   ---       ?RTX_FTASKCONTEXT?3
      00000000H   NUMBER   ---       ?RTX_FTASKDATA?1
      00000000H   NUMBER   ---       ?RTX_FTASKDATA?2
      00000000H   NUMBER   ---       ?RTX_FTASKDATA?3
      00000007H   NUMBER   ---       ?RTX_MAXTASKN
      00000007H   DATA     ---       ?RTX_NEXTID
      01000837H   CODE     ---       ?RTX_NEXTTASK
      00000000H   NUMBER   ---       ?RTX_PBP
      000000FFH   NUMBER   ---       ?RTX_RAMTOP
      00000000H   NUMBER   ---       ?RTX_REENTRANT
      01001DCDH   CODE     ---       ?RTX_TASKENTRY
      01000916H   CODE     ---       ?RTX_TASKIDX
      00000079H   IDATA    ---       ?RTX_TASKSP
      00000069H   IDATA    ---       ?RTX_TASKSTATUS
      01001CDAH   CODE     ---       _At24c02Read
      01001D16H   CODE     ---       _At24c02Write
      01000003H   CODE     ---       _delay_ms
      010019A5H   CODE     ---       _I2cSendByte
      01001A3EH   CODE     ---       _IRcvStr
*DEL*:00000000H   CODE     ---       _ISendByte
      01001BD6H   CODE     ---       _ISendStr
      01000A29H   CODE     ---       _ISR_SEND_SIGNAL
*DEL*:00000000H   CODE     ---       _mRcvByte
*DEL*:00000000H   CODE     ---       _mSendStr
      01001D47H   CODE     ---       _oled_pow
      01001C64H   CODE     ---       _OLED_Set_Pos
      0100194FH   CODE     ---       _OLED_ShowChar
      010017D0H   CODE     ---       _OLED_ShowNum
      01001B5BH   CODE     ---       _OLED_ShowString
      01001D9CH   CODE     ---       _OLED_WR_Byte
      01000917H   CODE     ---       _os_create_task
      010009A0H   CODE     ---       _os_delete_task
      01000A29H   CODE     ---       _os_send_signal
      01000A50H   CODE     ---       _OS_WAIT
      01000A50H   CODE     ---       _OS_WAIT1
      01000A50H   CODE     ---       _os_wait2
      010019F3H   CODE     ---       _P8563_RcvStr
      01001DECH   CODE     ---       _P8563_SendStr
      01001E07H   CODE     ---       _Read_conversion
      01001DFBH   CODE     ---       _send_byte
      0100000EH   CODE     ---       _send_string
      01001A8BH   CODE     ---       _SendByte
      01001B16H   CODE     ---       _Start_conversion
      01001C90H   CODE     ---       _Write_IIC_Byte
      01001E12H   CODE     ---       _Write_IIC_Command
      01001E1DH   CODE     ---       _Write_IIC_Data
*SFR* 000000D0H.6 DATA     BIT       AC
LX51 LINKER/LOCATER V4.66.97.0                                                        05/18/2022  18:07:15  PAGE 9


*SFR* 000000E0H   DATA     BYTE      ACC
      00000020H.6 BIT      BIT       ack
      01001D2FH   CODE     ---       Ack_I2c
      01001580H   CODE     ---       ADCTask
*SFR* 000000F0H   DATA     BYTE      B
*SFR* 00000080H.0 DATA     BIT       beep
      010013CCH   CODE     ---       BEEPTask
      0000000EH   DATA     BYTE      cut_pos
*SFR* 000000D0H.7 DATA     BIT       CY
      01001CBBH   CODE     ---       Delay10us
*SFR* 00000083H   DATA     BYTE      DPH
*SFR* 00000082H   DATA     BYTE      DPL
*SFR* 000000A8H.7 DATA     BIT       EA
*SFR* 000000A8H.4 DATA     BIT       ES
*SFR* 000000A8H.1 DATA     BIT       ET0
*SFR* 000000A8H.3 DATA     BIT       ET1
*SFR* 000000A8H.0 DATA     BIT       EX0
*SFR* 000000A8H.2 DATA     BIT       EX1
*SFR* 000000D0H.5 DATA     BIT       F0
      01001E42H   CONST    ---       F6x8
      01001C08H   CODE     ---       I2cReadByte
      01001DDDH   CODE     ---       I2cStart
      01001E28H   CODE     ---       I2cStop
*SFR* 000000A8H   DATA     BYTE      IE
*SFR* 00000088H.1 DATA     BIT       IE0
*SFR* 00000088H.3 DATA     BIT       IE1
      01001E32H   CODE     ---       IIC_Start
      01001E3BH   CODE     ---       IIC_Stop
      01001DC8H   CODE     ---       IIC_Wait_Ack
*SFR* 000000B0H.2 DATA     BIT       INT0
*SFR* 000000B0H.3 DATA     BIT       INT1
*SFR* 000000B8H   DATA     BYTE      IP
*SFR* 00000088H.0 DATA     BIT       IT0
*SFR* 00000088H.2 DATA     BIT       IT1
      00000017H   DATA     ---       key_buf
      01001635H   CODE     ---       KeyDown
      01000AAFH   CODE     ---       KeyTask
*SFR* 000000A0H.0 DATA     BIT       led0
*SFR* 000000A0H.1 DATA     BIT       led1
      010008DAH   CODE     ---       MAIN
      010014B9H   CODE     ---       MainTask
      02000023H   XDATA    BYTE      mark
      0100121DH   CODE     ---       NumSetTask
      01001B9FH   CODE     ---       OLED_Clear
*DEL*:00000000H   CODE     ---       OLED_Display_Off
*DEL*:00000000H   CODE     ---       OLED_Display_On
      0100174DH   CODE     ---       OLED_Init
*DEL*:00000000H   CODE     ---       OLED_On
*SFR* 00000080H.4 DATA     BIT       OLED_SCL
*SFR* 00000080H.5 DATA     BIT       OLED_SDIN
      010003E6H   CODE     ---       OLEDTask
      01000820H   CODE     ---       OS_SWITCH_TASK
*SFR* 000000D0H.2 DATA     BIT       OV
*SFR* 000000D0H.0 DATA     BIT       P
*SFR* 00000080H   DATA     BYTE      P0
*SFR* 00000090H   DATA     BYTE      P1
*SFR* 000000A0H   DATA     BYTE      P2
*SFR* 000000B0H   DATA     BYTE      P3
*SFR* 00000087H   DATA     BYTE      PCON
      02000008H   XDATA    CHAR      pos_i
      02000011H   XDATA    ---       pos_x
      0200001AH   XDATA    ---       pos_y
*SFR* 000000B8H.4 DATA     BIT       PS
*SFR* 000000D0H   DATA     BYTE      PSW
*SFR* 000000B8H.1 DATA     BIT       PT0
LX51 LINKER/LOCATER V4.66.97.0                                                        05/18/2022  18:07:15  PAGE 10


*SFR* 000000B8H.3 DATA     BIT       PT1
*SFR* 000000B8H.0 DATA     BIT       PX0
*SFR* 000000B8H.2 DATA     BIT       PX1
*SFR* 00000098H.2 DATA     BIT       RB8
      01001C37H   CODE     ---       RcvByte
*SFR* 000000B0H.7 DATA     BIT       RD
*SFR* 00000098H.4 DATA     BIT       REN
*SFR* 00000098H.0 DATA     BIT       RI
      02000010H   XDATA    CHAR      ride_flag
*SFR* 000000D0H.3 DATA     BIT       RS0
*SFR* 000000D0H.4 DATA     BIT       RS1
      02000051H   XDATA    BYTE      run_mark
      0200004AH   XDATA    BYTE      run_state
*SFR* 000000B0H.0 DATA     BIT       RXD
*SFR* 00000099H   DATA     BYTE      SBUF
*SFR* 00000080H.4 DATA     BIT       SCL
*SFR* 00000080H.4 DATA     BIT       SCL1
*SFR* 00000098H   DATA     BYTE      SCON
*SFR* 00000080H.5 DATA     BIT       SDA
*SFR* 00000080H.5 DATA     BIT       SDA1
      02000049H   XDATA    BYTE      set_mark
*SFR* 00000098H.7 DATA     BIT       SM0
*SFR* 00000098H.6 DATA     BIT       SM1
*SFR* 00000098H.5 DATA     BIT       SM2
*SFR* 00000081H   DATA     BYTE      SP
      01001D75H   CODE     ---       Start_I2c
      01001D8BH   CODE     ---       Stop_I2c
*SFR* 000000B0H.4 DATA     BIT       T0
*SFR* 000000B0H.5 DATA     BIT       T1
*SFR* 00000098H.3 DATA     BIT       TB8
*SFR* 00000088H   DATA     BYTE      TCON
      0200004DH   XDATA    INT       temp_max
      02000000H   XDATA    ---       temp_max_buf
      0200004BH   XDATA    INT       temp_min
      0200005CH   XDATA    ---       temp_min_buf
*SFR* 00000088H.5 DATA     BIT       TF0
*SFR* 00000088H.7 DATA     BIT       TF1
*SFR* 0000008CH   DATA     BYTE      TH0
*SFR* 0000008DH   DATA     BYTE      TH1
*SFR* 00000098H.1 DATA     BIT       TI
      00000010H   DATA     ---       time_cut
      010018F6H   CODE     ---       TimeTask
*SFR* 0000008AH   DATA     BYTE      TL0
*SFR* 0000008BH   DATA     BYTE      TL1
*SFR* 00000089H   DATA     BYTE      TMOD
*SFR* 00000088H.4 DATA     BIT       TR0
*SFR* 00000088H.6 DATA     BIT       TR1
*SFR* 000000B0H.1 DATA     BIT       TXD
      01000D58H   CODE     ---       UARTTask
      02000009H   XDATA    ---       uca_rd_time_dat
      02000053H   XDATA    ---       uca_send_time_dat
      02000024H   XDATA    ---       uca_wr_time_dat
      0200004FH   XDATA    INT       ui_convert_dat
      02000052H   XDATA    BYTE      ui_mark
      01001D5FH   CODE     ---       usart_init
      0100183AH   CODE     ---       Usart_Rx
      0200002BH   XDATA    ---       USART_RX_BUF
      00000016H   DATA     BYTE      USART_RX_STA
*SFR* 000000B0H.6 DATA     BIT       WR



SYMBOL TABLE OF MODULE:  .\Objects\temp_show (MAIN)

      VALUE       REP       CLASS    TYPE      SYMBOL NAME
LX51 LINKER/LOCATER V4.66.97.0                                                        05/18/2022  18:07:15  PAGE 11


      ====================================================
      ---         MODULE    ---      ---       MAIN
      0200005CH   PUBLIC    XDATA    ---       temp_min_buf
      02000053H   PUBLIC    XDATA    ---       uca_send_time_dat
      02000052H   PUBLIC    XDATA    BYTE      ui_mark
      00000017H   PUBLIC    DATA     ---       key_buf
      00000016H   PUBLIC    DATA     BYTE      USART_RX_STA
      02000051H   PUBLIC    XDATA    BYTE      run_mark
      0200004FH   PUBLIC    XDATA    INT       ui_convert_dat
      0200004DH   PUBLIC    XDATA    INT       temp_max
      00000010H   PUBLIC    DATA     ---       time_cut
      0200004BH   PUBLIC    XDATA    INT       temp_min
      0200004AH   PUBLIC    XDATA    BYTE      run_state
      02000049H   PUBLIC    XDATA    BYTE      set_mark
      0200002BH   PUBLIC    XDATA    ---       USART_RX_BUF
      02000024H   PUBLIC    XDATA    ---       uca_wr_time_dat
      02000023H   PUBLIC    XDATA    BYTE      mark
      0200001AH   PUBLIC    XDATA    ---       pos_y
      02000011H   PUBLIC    XDATA    ---       pos_x
      02000010H   PUBLIC    XDATA    CHAR      ride_flag
      02000009H   PUBLIC    XDATA    ---       uca_rd_time_dat
      02000008H   PUBLIC    XDATA    CHAR      pos_i
      0000000EH   PUBLIC    DATA     BYTE      cut_pos
      02000000H   PUBLIC    XDATA    ---       temp_max_buf
      0100121DH   PUBLIC    CODE     ---       NumSetTask
      010013CCH   PUBLIC    CODE     ---       BEEPTask
      010018F6H   PUBLIC    CODE     ---       TimeTask
      010003E6H   PUBLIC    CODE     ---       OLEDTask
      01000AAFH   PUBLIC    CODE     ---       KeyTask
      01000D58H   PUBLIC    CODE     ---       UARTTask
      01001580H   PUBLIC    CODE     ---       ADCTask
      010014B9H   PUBLIC    CODE     ---       MainTask
      01000003H   PUBLIC    CODE     ---       _delay_ms
      00000080H   SFRSYM    DATA     BYTE      P0
      00000090H   SFRSYM    DATA     BYTE      P1
      000000A0H   SFRSYM    DATA     BYTE      P2
      000000B0H   SFRSYM    DATA     BYTE      P3
      000000B0H.4 SFRSYM    DATA     BIT       T0
      000000D0H.6 SFRSYM    DATA     BIT       AC
      000000B0H.5 SFRSYM    DATA     BIT       T1
      000000A8H.7 SFRSYM    DATA     BIT       EA
      00000080H.5 SFRSYM    DATA     BIT       SDA1
      000000A8H   SFRSYM    DATA     BYTE      IE
      00000080H.4 SFRSYM    DATA     BIT       SCL1
      000000B0H.7 SFRSYM    DATA     BIT       RD
      000000A8H.4 SFRSYM    DATA     BIT       ES
      000000B8H   SFRSYM    DATA     BYTE      IP
      00000098H.0 SFRSYM    DATA     BIT       RI
      000000B0H.2 SFRSYM    DATA     BIT       INT0
      000000D0H.7 SFRSYM    DATA     BIT       CY
      00000098H.1 SFRSYM    DATA     BIT       TI
      000000B0H.3 SFRSYM    DATA     BIT       INT1
      00000080H.0 SFRSYM    DATA     BIT       beep
      000000B8H.4 SFRSYM    DATA     BIT       PS
      00000081H   SFRSYM    DATA     BYTE      SP
      000000D0H.2 SFRSYM    DATA     BIT       OV
      000000B0H.6 SFRSYM    DATA     BIT       WR
      00000099H   SFRSYM    DATA     BYTE      SBUF
      00000087H   SFRSYM    DATA     BYTE      PCON
      00000098H   SFRSYM    DATA     BYTE      SCON
      00000080H.5 SFRSYM    DATA     BIT       OLED_SDIN
      00000089H   SFRSYM    DATA     BYTE      TMOD
      00000088H   SFRSYM    DATA     BYTE      TCON
      00000088H.1 SFRSYM    DATA     BIT       IE0
      00000088H.3 SFRSYM    DATA     BIT       IE1
LX51 LINKER/LOCATER V4.66.97.0                                                        05/18/2022  18:07:15  PAGE 12


      000000F0H   SFRSYM    DATA     BYTE      B
      000000E0H   SFRSYM    DATA     BYTE      ACC
      000000A8H.1 SFRSYM    DATA     BIT       ET0
      000000A8H.3 SFRSYM    DATA     BIT       ET1
      00000088H.5 SFRSYM    DATA     BIT       TF0
      00000088H.7 SFRSYM    DATA     BIT       TF1
      00000098H.2 SFRSYM    DATA     BIT       RB8
      0000008CH   SFRSYM    DATA     BYTE      TH0
      000000A8H.0 SFRSYM    DATA     BIT       EX0
      00000088H.0 SFRSYM    DATA     BIT       IT0
      0000008DH   SFRSYM    DATA     BYTE      TH1
      00000098H.3 SFRSYM    DATA     BIT       TB8
      000000A8H.2 SFRSYM    DATA     BIT       EX1
      00000088H.2 SFRSYM    DATA     BIT       IT1
      000000D0H.0 SFRSYM    DATA     BIT       P
      00000098H.7 SFRSYM    DATA     BIT       SM0
      0000008AH   SFRSYM    DATA     BYTE      TL0
      00000098H.6 SFRSYM    DATA     BIT       SM1
      0000008BH   SFRSYM    DATA     BYTE      TL1
      00000098H.5 SFRSYM    DATA     BIT       SM2
      000000B8H.1 SFRSYM    DATA     BIT       PT0
      000000B8H.3 SFRSYM    DATA     BIT       PT1
      000000D0H.3 SFRSYM    DATA     BIT       RS0
      00000088H.4 SFRSYM    DATA     BIT       TR0
      000000D0H.4 SFRSYM    DATA     BIT       RS1
      00000088H.6 SFRSYM    DATA     BIT       TR1
      000000B8H.0 SFRSYM    DATA     BIT       PX0
      000000B8H.2 SFRSYM    DATA     BIT       PX1
      00000083H   SFRSYM    DATA     BYTE      DPH
      00000082H   SFRSYM    DATA     BYTE      DPL
      00000098H.4 SFRSYM    DATA     BIT       REN
      000000A0H.0 SFRSYM    DATA     BIT       led0
      000000A0H.1 SFRSYM    DATA     BIT       led1
      00000080H.4 SFRSYM    DATA     BIT       OLED_SCL
      000000B0H.0 SFRSYM    DATA     BIT       RXD
      000000B0H.1 SFRSYM    DATA     BIT       TXD
      000000D0H.5 SFRSYM    DATA     BIT       F0
      000000D0H   SFRSYM    DATA     BYTE      PSW
      0000000FH   SYMBOL    DATA     BYTE      key

      01000FDEH   BLOCK     CODE     ---       LVL=0
      ---         BLOCKEND  ---      ---       LVL=0

      01000003H   BLOCK     CODE     ---       LVL=0
      00000005H   SYMBOL    DATA     BYTE      ms
      01000003H   LINE      CODE     ---       #42
      01000005H   LINE      CODE     ---       #43
      01000005H   LINE      CODE     ---       #44
      ---         BLOCKEND  ---      ---       LVL=0

      010014B9H   BLOCK     CODE     ---       LVL=0
      010014B9H   BLOCK     CODE     NEAR LAB  LVL=1
      00000021H   SYMBOL    DATA     BYTE      j
      ---         BLOCKEND  ---      ---       LVL=1
      010014B9H   LINE      CODE     ---       #53
      010014B9H   LINE      CODE     ---       #56
      010014BCH   LINE      CODE     ---       #57
      010014BFH   LINE      CODE     ---       #59
      010014CDH   LINE      CODE     ---       #60
      010014CDH   LINE      CODE     ---       #61
      010014D9H   LINE      CODE     ---       #62
      010014DDH   LINE      CODE     ---       #63
      010014E5H   LINE      CODE     ---       #64
      010014E5H   LINE      CODE     ---       #65
      0100150DH   LINE      CODE     ---       #66
LX51 LINKER/LOCATER V4.66.97.0                                                        05/18/2022  18:07:15  PAGE 13


      0100150DH   LINE      CODE     ---       #67
      01001512H   LINE      CODE     ---       #69
      0100151AH   LINE      CODE     ---       #70
      0100151AH   LINE      CODE     ---       #71
      01001542H   LINE      CODE     ---       #72
      01001542H   LINE      CODE     ---       #73
      01001547H   LINE      CODE     ---       #76
      0100154CH   LINE      CODE     ---       #77
      01001551H   LINE      CODE     ---       #78
      01001556H   LINE      CODE     ---       #79
      0100155BH   LINE      CODE     ---       #80
      01001560H   LINE      CODE     ---       #81
      01001565H   LINE      CODE     ---       #82
      0100156AH   LINE      CODE     ---       #84
      0100156FH   LINE      CODE     ---       #85
      01001571H   LINE      CODE     ---       #86
      ---         BLOCKEND  ---      ---       LVL=0

      01001580H   BLOCK     CODE     ---       LVL=0
      01001580H   BLOCK     CODE     NEAR LAB  LVL=1
      00000022H   SYMBOL    DATA     ---       uca_rd_dat
      00000024H   SYMBOL    DATA     FLOAT     dat
      ---         BLOCKEND  ---      ---       LVL=1
      01001580H   LINE      CODE     ---       #94
      01001580H   LINE      CODE     ---       #99
      01001580H   LINE      CODE     ---       #100
      01001580H   LINE      CODE     ---       #101
      01001582H   LINE      CODE     ---       #104
      0100158BH   LINE      CODE     ---       #105
      01001590H   LINE      CODE     ---       #106
      0100159DH   LINE      CODE     ---       #108
      010015B0H   LINE      CODE     ---       #109
      010015B8H   LINE      CODE     ---       #111
      010015C2H   LINE      CODE     ---       #112
      010015CEH   LINE      CODE     ---       #113
      010015DFH   LINE      CODE     ---       #114
      010015DFH   LINE      CODE     ---       #115
      010015E4H   LINE      CODE     ---       #116
      010015E4H   LINE      CODE     ---       #118
      0100160CH   LINE      CODE     ---       #119
      01001612H   LINE      CODE     ---       #120
      01001617H   LINE      CODE     ---       #121
      0100161CH   LINE      CODE     ---       #122
      0100161CH   LINE      CODE     ---       #123
      0100161FH   LINE      CODE     ---       #124
      0100161FH   LINE      CODE     ---       #125
      01001622H   LINE      CODE     ---       #126
      01001627H   LINE      CODE     ---       #128
      0100162AH   LINE      CODE     ---       #129
      ---         BLOCKEND  ---      ---       LVL=0

      01000D58H   BLOCK     CODE     ---       LVL=0
      01000D58H   BLOCK     CODE     NEAR LAB  LVL=1
      02000064H   SYMBOL    XDATA    ---       temp_send_buf
      0200006DH   SYMBOL    XDATA    BYTE      j
      ---         BLOCKEND  ---      ---       LVL=1
      01000D58H   LINE      CODE     ---       #137
      01000D58H   LINE      CODE     ---       #140
      01000D58H   LINE      CODE     ---       #141
      01000D58H   LINE      CODE     ---       #142
      01000D63H   LINE      CODE     ---       #143
      01000D63H   LINE      CODE     ---       #144
      01000D65H   LINE      CODE     ---       #145
      01000D70H   LINE      CODE     ---       #146
      01000D70H   LINE      CODE     ---       #147
LX51 LINKER/LOCATER V4.66.97.0                                                        05/18/2022  18:07:15  PAGE 14


      01000D75H   LINE      CODE     ---       #148
      01000D75H   LINE      CODE     ---       #149
      01000D7EH   LINE      CODE     ---       #150
      01000D7EH   LINE      CODE     ---       #151
      01000D89H   LINE      CODE     ---       #152
      01000D89H   LINE      CODE     ---       #153
      01000D9FH   LINE      CODE     ---       #154
      01000DB3H   LINE      CODE     ---       #155
      01000DCDH   LINE      CODE     ---       #156
      01000DDFH   LINE      CODE     ---       #157
      01000DEEH   LINE      CODE     ---       #159
      01000DF4H   LINE      CODE     ---       #160
      01000DFAH   LINE      CODE     ---       #161
      01000DFEH   LINE      CODE     ---       #162
      01000E00H   LINE      CODE     ---       #163
      01000E09H   LINE      CODE     ---       #164
      01000E09H   LINE      CODE     ---       #165
      01000E11H   LINE      CODE     ---       #166
      01000E11H   LINE      CODE     ---       #167
      01000E17H   LINE      CODE     ---       #168
      01000E1FH   LINE      CODE     ---       #169
      01000E27H   LINE      CODE     ---       #170
      01000E2FH   LINE      CODE     ---       #171
      01000E37H   LINE      CODE     ---       #172
      01000E40H   LINE      CODE     ---       #173
      01000E40H   LINE      CODE     ---       #174
      01000E40H   LINE      CODE     ---       #175
      01000E4BH   LINE      CODE     ---       #176
      01000E4BH   LINE      CODE     ---       #177
      01000E51H   LINE      CODE     ---       #178
      01000E51H   LINE      CODE     ---       #179
      01000E5BH   LINE      CODE     ---       #180
      01000E69H   LINE      CODE     ---       #181
      01000E6CH   LINE      CODE     ---       #182
      01000E6CH   LINE      CODE     ---       #183
      01000E6FH   LINE      CODE     ---       #185
      01000E79H   LINE      CODE     ---       #186
      01000E87H   LINE      CODE     ---       #187
      01000E8AH   LINE      CODE     ---       #188
      01000E8AH   LINE      CODE     ---       #189
      01000E8DH   LINE      CODE     ---       #190
      01000E8DH   LINE      CODE     ---       #191
      01000E95H   LINE      CODE     ---       #192
      01000E95H   LINE      CODE     ---       #193
      01000E9DH   LINE      CODE     ---       #194
      01000EA5H   LINE      CODE     ---       #196
      01000EADH   LINE      CODE     ---       #197
      01000EB5H   LINE      CODE     ---       #199
      01000EBDH   LINE      CODE     ---       #200
      01000EC5H   LINE      CODE     ---       #202
      01000ED7H   LINE      CODE     ---       #203
      01000ED7H   LINE      CODE     ---       #204
      01000EE1H   LINE      CODE     ---       #205
      01000EE6H   LINE      CODE     ---       #206
      01000EEEH   LINE      CODE     ---       #207
      01000EEEH   LINE      CODE     ---       #208
      01000EF9H   LINE      CODE     ---       #209
      01000EF9H   LINE      CODE     ---       #210
      01000F02H   LINE      CODE     ---       #211
      01000F02H   LINE      CODE     ---       #212
      01000F07H   LINE      CODE     ---       #214
      01000F09H   LINE      CODE     ---       #215
      01000F0EH   LINE      CODE     ---       #216
      01000F0EH   LINE      CODE     ---       #217
      01000F24H   LINE      CODE     ---       #218
LX51 LINKER/LOCATER V4.66.97.0                                                        05/18/2022  18:07:15  PAGE 15


      01000F24H   LINE      CODE     ---       #221
      01000F2DH   LINE      CODE     ---       #222
      01000F2DH   LINE      CODE     ---       #223
      01000F3DH   LINE      CODE     ---       #224
      01000F3FH   LINE      CODE     ---       #225
      01000F44H   LINE      CODE     ---       #226
      01000F44H   LINE      CODE     ---       #227
      01000F6BH   LINE      CODE     ---       #228
      01000F6BH   LINE      CODE     ---       #231
      01000F7BH   LINE      CODE     ---       #232
      01000F7BH   LINE      CODE     ---       #233
      01000F8BH   LINE      CODE     ---       #234
      01000F8BH   LINE      CODE     ---       #236
      01000F9AH   LINE      CODE     ---       #237
      01000F9DH   LINE      CODE     ---       #238
      01000FAEH   LINE      CODE     ---       #239
      01000FB1H   LINE      CODE     ---       #240
      01000FB1H   LINE      CODE     ---       #241
      01000FB1H   LINE      CODE     ---       #243
      01000FB1H   LINE      CODE     ---       #245
      01000FB6H   LINE      CODE     ---       #246
      01000FB9H   LINE      CODE     ---       #247
      ---         BLOCKEND  ---      ---       LVL=0

      01000AAFH   BLOCK     CODE     ---       LVL=0
      01000AAFH   BLOCK     CODE     NEAR LAB  LVL=1
      0000003BH   SYMBOL    DATA     BYTE      num
      ---         BLOCKEND  ---      ---       LVL=1
      01000AAFH   LINE      CODE     ---       #255
      01000AAFH   LINE      CODE     ---       #257
      01000AB2H   LINE      CODE     ---       #258
      01000AB2H   LINE      CODE     ---       #259
      01000AB2H   LINE      CODE     ---       #260
      01000AB7H   LINE      CODE     ---       #261
      01000ABEH   LINE      CODE     ---       #262
      01000ABEH   LINE      CODE     ---       #263
      01000ACDH   LINE      CODE     ---       #264
      01000AD6H   LINE      CODE     ---       #265
      01000AD6H   LINE      CODE     ---       #266
      01000ADCH   LINE      CODE     ---       #267
      01000AE0H   LINE      CODE     ---       #268
      01000AECH   LINE      CODE     ---       #269
      01000AECH   LINE      CODE     ---       #270
      01000AF1H   LINE      CODE     ---       #271
      01000AF1H   LINE      CODE     ---       #272
      01000AFDH   LINE      CODE     ---       #273
      01000B01H   LINE      CODE     ---       #274
      01000B1CH   LINE      CODE     ---       #275
      01000B1CH   LINE      CODE     ---       #276
      01000B22H   LINE      CODE     ---       #277
      01000B22H   LINE      CODE     ---       #279
      01000B2BH   LINE      CODE     ---       #280
      01000B2BH   LINE      CODE     ---       #281
      01000B31H   LINE      CODE     ---       #282
      01000B40H   LINE      CODE     ---       #283
      01000B45H   LINE      CODE     ---       #284
      01000B45H   LINE      CODE     ---       #285
      01000B56H   LINE      CODE     ---       #286
      01000B5AH   LINE      CODE     ---       #287
      01000B6FH   LINE      CODE     ---       #288
      01000B6FH   LINE      CODE     ---       #289
      01000B75H   LINE      CODE     ---       #290
      01000B75H   LINE      CODE     ---       #291
      01000B81H   LINE      CODE     ---       #292
      01000B81H   LINE      CODE     ---       #293
LX51 LINKER/LOCATER V4.66.97.0                                                        05/18/2022  18:07:15  PAGE 16


      01000B89H   LINE      CODE     ---       #294
      01000B89H   LINE      CODE     ---       #295
      01000B8FH   LINE      CODE     ---       #296
      01000B9DH   LINE      CODE     ---       #297
      01000BA0H   LINE      CODE     ---       #298
      01000BA0H   LINE      CODE     ---       #299
      01000BA9H   LINE      CODE     ---       #300
      01000BA9H   LINE      CODE     ---       #301
      01000BB1H   LINE      CODE     ---       #302
      01000BB1H   LINE      CODE     ---       #303
      01000BB7H   LINE      CODE     ---       #304
      01000BC8H   LINE      CODE     ---       #305
      01000BCAH   LINE      CODE     ---       #306
      01000BCAH   LINE      CODE     ---       #307
      01000BCDH   LINE      CODE     ---       #309
      01000BD3H   LINE      CODE     ---       #310
      01000BD3H   LINE      CODE     ---       #311
      01000BD8H   LINE      CODE     ---       #312
      01000BD8H   LINE      CODE     ---       #313
      01000BDFH   LINE      CODE     ---       #314
      01000BDFH   LINE      CODE     ---       #315
      01000BE4H   LINE      CODE     ---       #316
      01000BE4H   LINE      CODE     ---       #317
      01000BEBH   LINE      CODE     ---       #318
      01000BEEH   LINE      CODE     ---       #319
      01000BEEH   LINE      CODE     ---       #320
      01000BF2H   LINE      CODE     ---       #321
      01000BF8H   LINE      CODE     ---       #324
      01000BF8H   LINE      CODE     ---       #325
      01000BFDH   LINE      CODE     ---       #326
      01000BFDH   LINE      CODE     ---       #327
      01000C04H   LINE      CODE     ---       #328
      01000C04H   LINE      CODE     ---       #329
      01000C09H   LINE      CODE     ---       #330
      01000C09H   LINE      CODE     ---       #331
      01000C10H   LINE      CODE     ---       #332
      01000C12H   LINE      CODE     ---       #333
      01000C12H   LINE      CODE     ---       #334
      01000C16H   LINE      CODE     ---       #335
      01000C16H   LINE      CODE     ---       #336
      01000C16H   LINE      CODE     ---       #337
      01000C1FH   LINE      CODE     ---       #338
      01000C1FH   LINE      CODE     ---       #339
      01000C24H   LINE      CODE     ---       #340
      01000C24H   LINE      CODE     ---       #341
      01000C2BH   LINE      CODE     ---       #342
      01000C2BH   LINE      CODE     ---       #343
      01000C30H   LINE      CODE     ---       #344
      01000C30H   LINE      CODE     ---       #345
      01000C37H   LINE      CODE     ---       #346
      01000C39H   LINE      CODE     ---       #347
      01000C39H   LINE      CODE     ---       #348
      01000C3DH   LINE      CODE     ---       #349
      01000C3DH   LINE      CODE     ---       #350
      01000C3DH   LINE      CODE     ---       #351
      01000C46H   LINE      CODE     ---       #352
      01000C46H   LINE      CODE     ---       #353
      01000C4BH   LINE      CODE     ---       #354
      01000C4BH   LINE      CODE     ---       #355
      01000C52H   LINE      CODE     ---       #356
      01000C52H   LINE      CODE     ---       #357
      01000C57H   LINE      CODE     ---       #358
      01000C57H   LINE      CODE     ---       #359
      01000C5EH   LINE      CODE     ---       #360
      01000C60H   LINE      CODE     ---       #361
LX51 LINKER/LOCATER V4.66.97.0                                                        05/18/2022  18:07:15  PAGE 17


      01000C60H   LINE      CODE     ---       #362
      01000C64H   LINE      CODE     ---       #363
      01000C64H   LINE      CODE     ---       #364
      01000C64H   LINE      CODE     ---       #365
      01000C6DH   LINE      CODE     ---       #366
      01000C6DH   LINE      CODE     ---       #367
      01000C72H   LINE      CODE     ---       #368
      01000C72H   LINE      CODE     ---       #369
      01000C79H   LINE      CODE     ---       #370
      01000C79H   LINE      CODE     ---       #371
      01000C7EH   LINE      CODE     ---       #372
      01000C7EH   LINE      CODE     ---       #373
      01000C85H   LINE      CODE     ---       #374
      01000C87H   LINE      CODE     ---       #375
      01000C87H   LINE      CODE     ---       #376
      01000C8BH   LINE      CODE     ---       #377
      01000C8BH   LINE      CODE     ---       #378
      01000C8BH   LINE      CODE     ---       #379
      01000C94H   LINE      CODE     ---       #380
      01000C94H   LINE      CODE     ---       #381
      01000C99H   LINE      CODE     ---       #382
      01000C99H   LINE      CODE     ---       #383
      01000CA0H   LINE      CODE     ---       #384
      01000CA0H   LINE      CODE     ---       #385
      01000CA5H   LINE      CODE     ---       #386
      01000CA5H   LINE      CODE     ---       #387
      01000CACH   LINE      CODE     ---       #388
      01000CAEH   LINE      CODE     ---       #389
      01000CAEH   LINE      CODE     ---       #390
      01000CB2H   LINE      CODE     ---       #391
      01000CB2H   LINE      CODE     ---       #392
      01000CB2H   LINE      CODE     ---       #393
      01000CBBH   LINE      CODE     ---       #394
      01000CBBH   LINE      CODE     ---       #395
      01000CC0H   LINE      CODE     ---       #396
      01000CC0H   LINE      CODE     ---       #397
      01000CC7H   LINE      CODE     ---       #398
      01000CC7H   LINE      CODE     ---       #399
      01000CCCH   LINE      CODE     ---       #400
      01000CCCH   LINE      CODE     ---       #401
      01000CD3H   LINE      CODE     ---       #402
      01000CD5H   LINE      CODE     ---       #403
      01000CD5H   LINE      CODE     ---       #404
      01000CD9H   LINE      CODE     ---       #405
      01000CD9H   LINE      CODE     ---       #406
      01000CD9H   LINE      CODE     ---       #407
      01000CE1H   LINE      CODE     ---       #408
      01000CE1H   LINE      CODE     ---       #409
      01000CE6H   LINE      CODE     ---       #410
      01000CE6H   LINE      CODE     ---       #411
      01000CEDH   LINE      CODE     ---       #412
      01000CEDH   LINE      CODE     ---       #413
      01000CF2H   LINE      CODE     ---       #414
      01000CF2H   LINE      CODE     ---       #415
      01000CF9H   LINE      CODE     ---       #416
      01000CFBH   LINE      CODE     ---       #417
      01000CFBH   LINE      CODE     ---       #418
      01000CFFH   LINE      CODE     ---       #419
      01000CFFH   LINE      CODE     ---       #420
      01000CFFH   LINE      CODE     ---       #421
      01000D07H   LINE      CODE     ---       #422
      01000D07H   LINE      CODE     ---       #423
      01000D0CH   LINE      CODE     ---       #424
      01000D0CH   LINE      CODE     ---       #425
      01000D13H   LINE      CODE     ---       #426
LX51 LINKER/LOCATER V4.66.97.0                                                        05/18/2022  18:07:15  PAGE 18


      01000D13H   LINE      CODE     ---       #427
      01000D18H   LINE      CODE     ---       #428
      01000D18H   LINE      CODE     ---       #429
      01000D1FH   LINE      CODE     ---       #430
      01000D21H   LINE      CODE     ---       #431
      01000D21H   LINE      CODE     ---       #432
      01000D25H   LINE      CODE     ---       #433
      01000D25H   LINE      CODE     ---       #434
      01000D25H   LINE      CODE     ---       #435
      01000D27H   LINE      CODE     ---       #436
      01000D2DH   LINE      CODE     ---       #437
      01000D2DH   LINE      CODE     ---       #438
      01000D32H   LINE      CODE     ---       #439
      01000D32H   LINE      CODE     ---       #440
      01000D39H   LINE      CODE     ---       #441
      01000D39H   LINE      CODE     ---       #442
      01000D3EH   LINE      CODE     ---       #443
      01000D3EH   LINE      CODE     ---       #444
      01000D45H   LINE      CODE     ---       #445
      01000D47H   LINE      CODE     ---       #446
      01000D47H   LINE      CODE     ---       #447
      01000D4BH   LINE      CODE     ---       #448
      01000D4BH   LINE      CODE     ---       #449
      01000D50H   LINE      CODE     ---       #450
      01000D50H   LINE      CODE     ---       #451
      01000D55H   LINE      CODE     ---       #452
      ---         BLOCKEND  ---      ---       LVL=0

      010003E6H   BLOCK     CODE     ---       LVL=0
      010003E6H   BLOCK     CODE     NEAR LAB  LVL=1
      0000003EH   SYMBOL    DATA     CHAR      event
      0000003FH   SYMBOL    DATA     FLOAT     cov_f
      ---         BLOCKEND  ---      ---       LVL=1
      010003E6H   LINE      CODE     ---       #461
      010003E6H   LINE      CODE     ---       #466
      010003E6H   LINE      CODE     ---       #467
      010003E6H   LINE      CODE     ---       #468
      010003E9H   LINE      CODE     ---       #469
      010003EDH   LINE      CODE     ---       #470
      010003EDH   LINE      CODE     ---       #472
      010003FEH   LINE      CODE     ---       #473
      0100040AH   LINE      CODE     ---       #474
      01000413H   LINE      CODE     ---       #475
      01000413H   LINE      CODE     ---       #476
      0100041BH   LINE      CODE     ---       #477
      01000424H   LINE      CODE     ---       #478
      0100042EH   LINE      CODE     ---       #479
      01000439H   LINE      CODE     ---       #481
      01000447H   LINE      CODE     ---       #482
      0100044DH   LINE      CODE     ---       #483
      0100044DH   LINE      CODE     ---       #484
      0100044DH   LINE      CODE     ---       #485
      01000455H   LINE      CODE     ---       #486
      01000455H   LINE      CODE     ---       #487
      01000462H   LINE      CODE     ---       #488
      01000462H   LINE      CODE     ---       #489
      01000462H   LINE      CODE     ---       #490
      01000465H   LINE      CODE     ---       #491
      01000465H   LINE      CODE     ---       #492
      01000465H   LINE      CODE     ---       #493
      01000467H   LINE      CODE     ---       #494
      01000467H   LINE      CODE     ---       #495
      01000467H   LINE      CODE     ---       #496
      0100046DH   LINE      CODE     ---       #497
      01000470H   LINE      CODE     ---       #498
LX51 LINKER/LOCATER V4.66.97.0                                                        05/18/2022  18:07:15  PAGE 19


      01000470H   LINE      CODE     ---       #499
      0100047AH   LINE      CODE     ---       #500
      0100047AH   LINE      CODE     ---       #502
      0100047FH   LINE      CODE     ---       #503
      0100047FH   LINE      CODE     ---       #504
      0100047FH   LINE      CODE     ---       #505
      01000482H   LINE      CODE     ---       #506
      01000484H   LINE      CODE     ---       #508
      01000484H   LINE      CODE     ---       #509
      01000484H   LINE      CODE     ---       #510
      01000491H   LINE      CODE     ---       #511
      01000491H   LINE      CODE     ---       #513
      01000496H   LINE      CODE     ---       #514
      01000496H   LINE      CODE     ---       #515
      01000496H   LINE      CODE     ---       #516
      01000499H   LINE      CODE     ---       #517
      0100049BH   LINE      CODE     ---       #519
      0100049BH   LINE      CODE     ---       #520
      0100049BH   LINE      CODE     ---       #521
      0100049EH   LINE      CODE     ---       #522
      0100049EH   LINE      CODE     ---       #523
      0100049EH   LINE      CODE     ---       #524
      010004A0H   LINE      CODE     ---       #525
      010004A0H   LINE      CODE     ---       #526
      010004A0H   LINE      CODE     ---       #527
      010004A5H   LINE      CODE     ---       #528
      010004A5H   LINE      CODE     ---       #529
      010004A7H   LINE      CODE     ---       #530
      010004AAH   LINE      CODE     ---       #531
      010004B0H   LINE      CODE     ---       #532
      010004BAH   LINE      CODE     ---       #533
      010004BAH   LINE      CODE     ---       #534
      010004BAH   LINE      CODE     ---       #535
      010004BDH   LINE      CODE     ---       #536
      010004BDH   LINE      CODE     ---       #537
      010004BDH   LINE      CODE     ---       #538
      010004BFH   LINE      CODE     ---       #540
      010004BFH   LINE      CODE     ---       #541
      010004BFH   LINE      CODE     ---       #542
      010004C5H   LINE      CODE     ---       #543
      010004C8H   LINE      CODE     ---       #544
      010004C8H   LINE      CODE     ---       #545
      010004D2H   LINE      CODE     ---       #546
      010004D2H   LINE      CODE     ---       #547
      010004D5H   LINE      CODE     ---       #548
      010004DCH   LINE      CODE     ---       #549
      010004DFH   LINE      CODE     ---       #550
      010004E6H   LINE      CODE     ---       #551
      010004EBH   LINE      CODE     ---       #552
      010004EBH   LINE      CODE     ---       #553
      010004EBH   LINE      CODE     ---       #554
      010004EEH   LINE      CODE     ---       #555
      010004F0H   LINE      CODE     ---       #557
      010004F0H   LINE      CODE     ---       #558
      010004F0H   LINE      CODE     ---       #559
      010004FDH   LINE      CODE     ---       #560
      010004FDH   LINE      CODE     ---       #562
      01000502H   LINE      CODE     ---       #563
      01000502H   LINE      CODE     ---       #564
      01000502H   LINE      CODE     ---       #565
      01000505H   LINE      CODE     ---       #566
      01000507H   LINE      CODE     ---       #568
      01000507H   LINE      CODE     ---       #569
      01000507H   LINE      CODE     ---       #570
      01000514H   LINE      CODE     ---       #571
LX51 LINKER/LOCATER V4.66.97.0                                                        05/18/2022  18:07:15  PAGE 20


      01000514H   LINE      CODE     ---       #572
      01000514H   LINE      CODE     ---       #573
      01000514H   LINE      CODE     ---       #575
      0100051CH   LINE      CODE     ---       #577
      01000521H   LINE      CODE     ---       #578
      01000524H   LINE      CODE     ---       #579
      01000527H   LINE      CODE     ---       #581
      0100052BH   LINE      CODE     ---       #582
      0100052BH   LINE      CODE     ---       #584
      0100053CH   LINE      CODE     ---       #585
      01000548H   LINE      CODE     ---       #587
      01000554H   LINE      CODE     ---       #588
      01000564H   LINE      CODE     ---       #589
      0100056FH   LINE      CODE     ---       #590
      0100056FH   LINE      CODE     ---       #606
      01000577H   LINE      CODE     ---       #607
      01000587H   LINE      CODE     ---       #608
      01000597H   LINE      CODE     ---       #611
      0100059FH   LINE      CODE     ---       #612
      0100059FH   LINE      CODE     ---       #613
      010005A7H   LINE      CODE     ---       #614
      010005AFH   LINE      CODE     ---       #615
      010005B1H   LINE      CODE     ---       #617
      010005B1H   LINE      CODE     ---       #618
      010005B9H   LINE      CODE     ---       #619
      010005C9H   LINE      CODE     ---       #620
      010005C9H   LINE      CODE     ---       #622
      010005D1H   LINE      CODE     ---       #623
      010005D1H   LINE      CODE     ---       #624
      010005DDH   LINE      CODE     ---       #625
      010005E5H   LINE      CODE     ---       #626
      010005E7H   LINE      CODE     ---       #628
      010005E7H   LINE      CODE     ---       #629
      010005F3H   LINE      CODE     ---       #630
      01000603H   LINE      CODE     ---       #631
      01000603H   LINE      CODE     ---       #634
      01000617H   LINE      CODE     ---       #635
      01000621H   LINE      CODE     ---       #636
      0100062BH   LINE      CODE     ---       #638
      01000630H   LINE      CODE     ---       #640
      0100063FH   LINE      CODE     ---       #641
      01000648H   LINE      CODE     ---       #642
      01000657H   LINE      CODE     ---       #643
      01000660H   LINE      CODE     ---       #645
      0100066DH   LINE      CODE     ---       #646
      01000672H   LINE      CODE     ---       #648
      01000678H   LINE      CODE     ---       #649
      0100068AH   LINE      CODE     ---       #650
      01000692H   LINE      CODE     ---       #651
      010006A1H   LINE      CODE     ---       #652
      010006A4H   LINE      CODE     ---       #653
      010006A4H   LINE      CODE     ---       #654
      ---         BLOCKEND  ---      ---       LVL=0

      010018F6H   BLOCK     CODE     ---       LVL=0
      010018F6H   LINE      CODE     ---       #662
      010018F6H   LINE      CODE     ---       #664
      010018F6H   LINE      CODE     ---       #665
      010018F6H   LINE      CODE     ---       #667
      01001904H   LINE      CODE     ---       #669
      0100190BH   LINE      CODE     ---       #670
      0100190EH   LINE      CODE     ---       #671
      01001915H   LINE      CODE     ---       #672
      01001918H   LINE      CODE     ---       #673
      01001925H   LINE      CODE     ---       #674
LX51 LINKER/LOCATER V4.66.97.0                                                        05/18/2022  18:07:15  PAGE 21


      01001928H   LINE      CODE     ---       #675
      0100192EH   LINE      CODE     ---       #676
      01001932H   LINE      CODE     ---       #677
      01001937H   LINE      CODE     ---       #679
      01001937H   LINE      CODE     ---       #680
      0100193AH   LINE      CODE     ---       #681
      0100193AH   LINE      CODE     ---       #682
      0100193DH   LINE      CODE     ---       #683
      01001942H   LINE      CODE     ---       #684
      01001944H   LINE      CODE     ---       #685
      ---         BLOCKEND  ---      ---       LVL=0

      010013CCH   BLOCK     CODE     ---       LVL=0
      010013CCH   BLOCK     CODE     NEAR LAB  LVL=1
      0000005CH   SYMBOL    DATA     BYTE      time_dat
      00000007H   SYMBOL    DATA     BYTE      event1
      0000005DH   SYMBOL    DATA     BYTE      beep_mark
      ---         BLOCKEND  ---      ---       LVL=1
      010013CCH   LINE      CODE     ---       #693
      010013CCH   LINE      CODE     ---       #696
      010013CCH   LINE      CODE     ---       #697
      010013CCH   LINE      CODE     ---       #698
      010013D3H   LINE      CODE     ---       #699
      010013DEH   LINE      CODE     ---       #700
      010013DEH   LINE      CODE     ---       #701
      010013DEH   LINE      CODE     ---       #702
      010013F2H   LINE      CODE     ---       #703
      010013F2H   LINE      CODE     ---       #704
      010013F5H   LINE      CODE     ---       #705
      010013F7H   LINE      CODE     ---       #706
      010013FBH   LINE      CODE     ---       #707
      01001400H   LINE      CODE     ---       #708
      01001402H   LINE      CODE     ---       #709
      01001411H   LINE      CODE     ---       #710
      01001411H   LINE      CODE     ---       #711
      01001414H   LINE      CODE     ---       #712
      01001416H   LINE      CODE     ---       #713
      0100141CH   LINE      CODE     ---       #714
      01001421H   LINE      CODE     ---       #715
      01001423H   LINE      CODE     ---       #717
      01001423H   LINE      CODE     ---       #718
      01001426H   LINE      CODE     ---       #719
      01001428H   LINE      CODE     ---       #720
      0100142CH   LINE      CODE     ---       #721
      01001430H   LINE      CODE     ---       #722
      01001430H   LINE      CODE     ---       #723
      01001430H   LINE      CODE     ---       #725
      01001439H   LINE      CODE     ---       #726
      0100143DH   LINE      CODE     ---       #727
      01001443H   LINE      CODE     ---       #728
      01001447H   LINE      CODE     ---       #730
      01001449H   LINE      CODE     ---       #733
      0100145CH   LINE      CODE     ---       #734
      0100146AH   LINE      CODE     ---       #735
      0100146AH   LINE      CODE     ---       #736
      01001470H   LINE      CODE     ---       #737
      01001473H   LINE      CODE     ---       #738
      01001475H   LINE      CODE     ---       #739
      01001483H   LINE      CODE     ---       #740
      01001483H   LINE      CODE     ---       #741
      01001489H   LINE      CODE     ---       #742
      0100148CH   LINE      CODE     ---       #743
      0100148EH   LINE      CODE     ---       #744
      0100149BH   LINE      CODE     ---       #745
      0100149BH   LINE      CODE     ---       #746
LX51 LINKER/LOCATER V4.66.97.0                                                        05/18/2022  18:07:15  PAGE 22


      010014A1H   LINE      CODE     ---       #747
      010014A7H   LINE      CODE     ---       #748
      010014AAH   LINE      CODE     ---       #750
      010014AAH   LINE      CODE     ---       #751
      010014B0H   LINE      CODE     ---       #752
      010014B6H   LINE      CODE     ---       #753
      010014B6H   LINE      CODE     ---       #754
      ---         BLOCKEND  ---      ---       LVL=0

      0100121DH   BLOCK     CODE     ---       LVL=0
      0100121DH   BLOCK     CODE     NEAR LAB  LVL=1
      00000007H   SYMBOL    DATA     CHAR      event1
      00000007H   SYMBOL    DATA     CHAR      x
      ---         BLOCKEND  ---      ---       LVL=1
      0100121DH   LINE      CODE     ---       #763
      0100121DH   LINE      CODE     ---       #767
      0100121DH   LINE      CODE     ---       #768
      0100121DH   LINE      CODE     ---       #769
      01001223H   LINE      CODE     ---       #770
      01001223H   LINE      CODE     ---       #771
      0100122AH   LINE      CODE     ---       #772
      0100122AH   LINE      CODE     ---       #773
      01001230H   LINE      CODE     ---       #774
      01001233H   LINE      CODE     ---       #775
      01001233H   LINE      CODE     ---       #778
      0100123AH   LINE      CODE     ---       #780
      0100123FH   LINE      CODE     ---       #781
      0100123FH   LINE      CODE     ---       #782
      0100124DH   LINE      CODE     ---       #783
      0100124DH   LINE      CODE     ---       #785
      0100125BH   LINE      CODE     ---       #786
      0100125BH   LINE      CODE     ---       #787
      01001264H   LINE      CODE     ---       #788
      01001264H   LINE      CODE     ---       #789
      01001282H   LINE      CODE     ---       #790
      01001297H   LINE      CODE     ---       #791
      0100129CH   LINE      CODE     ---       #792
      010012A1H   LINE      CODE     ---       #793
      010012A1H   LINE      CODE     ---       #794
      010012A4H   LINE      CODE     ---       #797
      010012ADH   LINE      CODE     ---       #798
      010012ADH   LINE      CODE     ---       #799
      010012B6H   LINE      CODE     ---       #800
      010012B6H   LINE      CODE     ---       #801
      010012C0H   LINE      CODE     ---       #803
      010012CCH   LINE      CODE     ---       #804
      010012D1H   LINE      CODE     ---       #805
      010012D1H   LINE      CODE     ---       #806
      010012D1H   LINE      CODE     ---       #807
      010012D1H   LINE      CODE     ---       #808
      010012DCH   LINE      CODE     ---       #809
      010012DCH   LINE      CODE     ---       #810
      010012E5H   LINE      CODE     ---       #811
      010012E5H   LINE      CODE     ---       #812
      010012EFH   LINE      CODE     ---       #814
      010012FDH   LINE      CODE     ---       #815
      010012FFH   LINE      CODE     ---       #816
      010012FFH   LINE      CODE     ---       #817
      010012FFH   LINE      CODE     ---       #818
      01001301H   LINE      CODE     ---       #821
      0100130AH   LINE      CODE     ---       #822
      0100130AH   LINE      CODE     ---       #823
      01001311H   LINE      CODE     ---       #824
      01001311H   LINE      CODE     ---       #826
      0100131CH   LINE      CODE     ---       #828
LX51 LINKER/LOCATER V4.66.97.0                                                        05/18/2022  18:07:15  PAGE 23


      01001327H   LINE      CODE     ---       #829
      0100132DH   LINE      CODE     ---       #830
      01001338H   LINE      CODE     ---       #831
      0100133BH   LINE      CODE     ---       #832
      0100133BH   LINE      CODE     ---       #833
      0100133BH   LINE      CODE     ---       #834
      0100133DH   LINE      CODE     ---       #835
      01001346H   LINE      CODE     ---       #836
      01001346H   LINE      CODE     ---       #837
      0100134DH   LINE      CODE     ---       #838
      0100134DH   LINE      CODE     ---       #839
      01001358H   LINE      CODE     ---       #840
      01001367H   LINE      CODE     ---       #841
      0100136CH   LINE      CODE     ---       #842
      0100137BH   LINE      CODE     ---       #843
      01001380H   LINE      CODE     ---       #844
      01001385H   LINE      CODE     ---       #845
      01001385H   LINE      CODE     ---       #846
      01001385H   LINE      CODE     ---       #847
      01001385H   LINE      CODE     ---       #849
      0100138EH   LINE      CODE     ---       #850
      0100138EH   LINE      CODE     ---       #851
      01001399H   LINE      CODE     ---       #852
      0100139DH   LINE      CODE     ---       #853
      010013A2H   LINE      CODE     ---       #854
      010013A5H   LINE      CODE     ---       #855
      010013AEH   LINE      CODE     ---       #856
      010013AEH   LINE      CODE     ---       #857
      010013B9H   LINE      CODE     ---       #858
      010013BDH   LINE      CODE     ---       #859
      010013C2H   LINE      CODE     ---       #860
      010013C2H   LINE      CODE     ---       #861
      010013C2H   LINE      CODE     ---       #863
      010013C5H   LINE      CODE     ---       #864
      ---         BLOCKEND  ---      ---       LVL=0

      ---         MODULE    ---      ---       USART
      0100183AH   PUBLIC    CODE     ---       Usart_Rx
      0100000EH   PUBLIC    CODE     ---       _send_string
      01001DFBH   PUBLIC    CODE     ---       _send_byte
      01001D5FH   PUBLIC    CODE     ---       usart_init
      00000080H   SFRSYM    DATA     BYTE      P0
      00000090H   SFRSYM    DATA     BYTE      P1
      000000A0H   SFRSYM    DATA     BYTE      P2
      000000B0H   SFRSYM    DATA     BYTE      P3
      000000B0H.4 SFRSYM    DATA     BIT       T0
      000000D0H.6 SFRSYM    DATA     BIT       AC
      000000B0H.5 SFRSYM    DATA     BIT       T1
      000000A8H.7 SFRSYM    DATA     BIT       EA
      00000080H.5 SFRSYM    DATA     BIT       SDA1
      000000A8H   SFRSYM    DATA     BYTE      IE
      00000080H.4 SFRSYM    DATA     BIT       SCL1
      000000B0H.7 SFRSYM    DATA     BIT       RD
      000000A8H.4 SFRSYM    DATA     BIT       ES
      000000B8H   SFRSYM    DATA     BYTE      IP
      00000098H.0 SFRSYM    DATA     BIT       RI
      000000B0H.2 SFRSYM    DATA     BIT       INT0
      000000D0H.7 SFRSYM    DATA     BIT       CY
      00000098H.1 SFRSYM    DATA     BIT       TI
      000000B0H.3 SFRSYM    DATA     BIT       INT1
      000000B8H.4 SFRSYM    DATA     BIT       PS
      00000081H   SFRSYM    DATA     BYTE      SP
      000000D0H.2 SFRSYM    DATA     BIT       OV
      000000B0H.6 SFRSYM    DATA     BIT       WR
      00000099H   SFRSYM    DATA     BYTE      SBUF
LX51 LINKER/LOCATER V4.66.97.0                                                        05/18/2022  18:07:15  PAGE 24


      00000087H   SFRSYM    DATA     BYTE      PCON
      00000098H   SFRSYM    DATA     BYTE      SCON
      00000080H.5 SFRSYM    DATA     BIT       OLED_SDIN
      00000089H   SFRSYM    DATA     BYTE      TMOD
      00000088H   SFRSYM    DATA     BYTE      TCON
      00000088H.1 SFRSYM    DATA     BIT       IE0
      00000088H.3 SFRSYM    DATA     BIT       IE1
      000000F0H   SFRSYM    DATA     BYTE      B
      000000E0H   SFRSYM    DATA     BYTE      ACC
      000000A8H.1 SFRSYM    DATA     BIT       ET0
      000000A8H.3 SFRSYM    DATA     BIT       ET1
      00000088H.5 SFRSYM    DATA     BIT       TF0
      00000088H.7 SFRSYM    DATA     BIT       TF1
      00000098H.2 SFRSYM    DATA     BIT       RB8
      0000008CH   SFRSYM    DATA     BYTE      TH0
      000000A8H.0 SFRSYM    DATA     BIT       EX0
      00000088H.0 SFRSYM    DATA     BIT       IT0
      0000008DH   SFRSYM    DATA     BYTE      TH1
      00000098H.3 SFRSYM    DATA     BIT       TB8
      000000A8H.2 SFRSYM    DATA     BIT       EX1
      00000088H.2 SFRSYM    DATA     BIT       IT1
      000000D0H.0 SFRSYM    DATA     BIT       P
      00000098H.7 SFRSYM    DATA     BIT       SM0
      0000008AH   SFRSYM    DATA     BYTE      TL0
      00000098H.6 SFRSYM    DATA     BIT       SM1
      0000008BH   SFRSYM    DATA     BYTE      TL1
      00000098H.5 SFRSYM    DATA     BIT       SM2
      000000B8H.1 SFRSYM    DATA     BIT       PT0
      000000B8H.3 SFRSYM    DATA     BIT       PT1
      000000D0H.3 SFRSYM    DATA     BIT       RS0
      00000088H.4 SFRSYM    DATA     BIT       TR0
      000000D0H.4 SFRSYM    DATA     BIT       RS1
      00000088H.6 SFRSYM    DATA     BIT       TR1
      000000B8H.0 SFRSYM    DATA     BIT       PX0
      000000B8H.2 SFRSYM    DATA     BIT       PX1
      00000083H   SFRSYM    DATA     BYTE      DPH
      00000082H   SFRSYM    DATA     BYTE      DPL
      00000098H.4 SFRSYM    DATA     BIT       REN
      00000080H.4 SFRSYM    DATA     BIT       OLED_SCL
      000000B0H.0 SFRSYM    DATA     BIT       RXD
      000000B0H.1 SFRSYM    DATA     BIT       TXD
      000000D0H.5 SFRSYM    DATA     BIT       F0
      000000D0H   SFRSYM    DATA     BYTE      PSW

      01001D5FH   BLOCK     CODE     ---       LVL=0
      01001D5FH   LINE      CODE     ---       #6
      01001D5FH   LINE      CODE     ---       #7
      01001D5FH   LINE      CODE     ---       #8
      01001D62H   LINE      CODE     ---       #9
      01001D65H   LINE      CODE     ---       #10
      01001D68H   LINE      CODE     ---       #11
      01001D6BH   LINE      CODE     ---       #12
      01001D6EH   LINE      CODE     ---       #13
      01001D70H   LINE      CODE     ---       #14
      01001D72H   LINE      CODE     ---       #15
      01001D74H   LINE      CODE     ---       #17
      ---         BLOCKEND  ---      ---       LVL=0

      01001DFBH   BLOCK     CODE     ---       LVL=0
      00000007H   SYMBOL    DATA     BYTE      dat
      01001DFBH   LINE      CODE     ---       #20
      01001DFBH   LINE      CODE     ---       #21
      01001DFBH   LINE      CODE     ---       #22
      01001DFDH   LINE      CODE     ---       #23
      01001DFFH   LINE      CODE     ---       #24
LX51 LINKER/LOCATER V4.66.97.0                                                        05/18/2022  18:07:15  PAGE 25


      01001E02H   LINE      CODE     ---       #25
      01001E04H   LINE      CODE     ---       #26
      01001E06H   LINE      CODE     ---       #27
      ---         BLOCKEND  ---      ---       LVL=0

      0100000EH   BLOCK     CODE     ---       LVL=0
      00000001H   SYMBOL    DATA     ---       p
      0100000EH   LINE      CODE     ---       #30
      0100000EH   LINE      CODE     ---       #31
      0100000EH   LINE      CODE     ---       #32
      01000014H   LINE      CODE     ---       #33
      01000014H   LINE      CODE     ---       #34
      01000017H   LINE      CODE     ---       #35
      0100001EH   LINE      CODE     ---       #36
      01000020H   LINE      CODE     ---       #37
      ---         BLOCKEND  ---      ---       LVL=0

      0100183AH   BLOCK     CODE     ---       LVL=0
      01001847H   BLOCK     CODE     NEAR LAB  LVL=1
      00000007H   SYMBOL    DATA     BYTE      Res
      ---         BLOCKEND  ---      ---       LVL=1
      0100183AH   LINE      CODE     ---       #39
      01001847H   LINE      CODE     ---       #42
      0100184AH   LINE      CODE     ---       #43
      0100184AH   LINE      CODE     ---       #44
      0100184CH   LINE      CODE     ---       #45
      0100184EH   LINE      CODE     ---       #46
      01001854H   LINE      CODE     ---       #47
      01001854H   LINE      CODE     ---       #48
      01001859H   LINE      CODE     ---       #49
      01001859H   LINE      CODE     ---       #50
      01001860H   LINE      CODE     ---       #51
      01001863H   LINE      CODE     ---       #52
      01001865H   LINE      CODE     ---       #54
      01001865H   LINE      CODE     ---       #55
      0100186FH   LINE      CODE     ---       #57
      0100186FH   LINE      CODE     ---       #58
      0100187EH   LINE      CODE     ---       #59
      01001880H   LINE      CODE     ---       #60
      0100188EH   LINE      CODE     ---       #61
      0100188EH   LINE      CODE     ---       #62
      0100188EH   LINE      CODE     ---       #63
      0100188EH   LINE      CODE     ---       #64
      0100188EH   LINE      CODE     ---       #65
      ---         BLOCKEND  ---      ---       LVL=0

      ---         MODULE    ---      ---       KEY
      01001635H   PUBLIC    CODE     ---       KeyDown
      00000080H   SFRSYM    DATA     BYTE      P0
      00000090H   SFRSYM    DATA     BYTE      P1
      000000A0H   SFRSYM    DATA     BYTE      P2
      000000B0H   SFRSYM    DATA     BYTE      P3
      000000B0H.4 SFRSYM    DATA     BIT       T0
      000000D0H.6 SFRSYM    DATA     BIT       AC
      000000B0H.5 SFRSYM    DATA     BIT       T1
      000000A8H.7 SFRSYM    DATA     BIT       EA
      00000080H.5 SFRSYM    DATA     BIT       SDA1
      000000A8H   SFRSYM    DATA     BYTE      IE
      00000080H.4 SFRSYM    DATA     BIT       SCL1
      000000B0H.7 SFRSYM    DATA     BIT       RD
      000000A8H.4 SFRSYM    DATA     BIT       ES
      000000B8H   SFRSYM    DATA     BYTE      IP
      00000098H.0 SFRSYM    DATA     BIT       RI
      000000B0H.2 SFRSYM    DATA     BIT       INT0
      000000D0H.7 SFRSYM    DATA     BIT       CY
LX51 LINKER/LOCATER V4.66.97.0                                                        05/18/2022  18:07:15  PAGE 26


      00000098H.1 SFRSYM    DATA     BIT       TI
      000000B0H.3 SFRSYM    DATA     BIT       INT1
      000000B8H.4 SFRSYM    DATA     BIT       PS
      00000081H   SFRSYM    DATA     BYTE      SP
      000000D0H.2 SFRSYM    DATA     BIT       OV
      000000B0H.6 SFRSYM    DATA     BIT       WR
      00000099H   SFRSYM    DATA     BYTE      SBUF
      00000087H   SFRSYM    DATA     BYTE      PCON
      00000098H   SFRSYM    DATA     BYTE      SCON
      00000080H.5 SFRSYM    DATA     BIT       OLED_SDIN
      00000089H   SFRSYM    DATA     BYTE      TMOD
      00000088H   SFRSYM    DATA     BYTE      TCON
      00000088H.1 SFRSYM    DATA     BIT       IE0
      00000088H.3 SFRSYM    DATA     BIT       IE1
      000000F0H   SFRSYM    DATA     BYTE      B
      000000E0H   SFRSYM    DATA     BYTE      ACC
      000000A8H.1 SFRSYM    DATA     BIT       ET0
      000000A8H.3 SFRSYM    DATA     BIT       ET1
      00000088H.5 SFRSYM    DATA     BIT       TF0
      00000088H.7 SFRSYM    DATA     BIT       TF1
      00000098H.2 SFRSYM    DATA     BIT       RB8
      0000008CH   SFRSYM    DATA     BYTE      TH0
      000000A8H.0 SFRSYM    DATA     BIT       EX0
      00000088H.0 SFRSYM    DATA     BIT       IT0
      0000008DH   SFRSYM    DATA     BYTE      TH1
      00000098H.3 SFRSYM    DATA     BIT       TB8
      000000A8H.2 SFRSYM    DATA     BIT       EX1
      00000088H.2 SFRSYM    DATA     BIT       IT1
      000000D0H.0 SFRSYM    DATA     BIT       P
      00000098H.7 SFRSYM    DATA     BIT       SM0
      0000008AH   SFRSYM    DATA     BYTE      TL0
      00000098H.6 SFRSYM    DATA     BIT       SM1
      0000008BH   SFRSYM    DATA     BYTE      TL1
      00000098H.5 SFRSYM    DATA     BIT       SM2
      000000B8H.1 SFRSYM    DATA     BIT       PT0
      000000B8H.3 SFRSYM    DATA     BIT       PT1
      000000D0H.3 SFRSYM    DATA     BIT       RS0
      00000088H.4 SFRSYM    DATA     BIT       TR0
      000000D0H.4 SFRSYM    DATA     BIT       RS1
      00000088H.6 SFRSYM    DATA     BIT       TR1
      000000B8H.0 SFRSYM    DATA     BIT       PX0
      000000B8H.2 SFRSYM    DATA     BIT       PX1
      00000083H   SFRSYM    DATA     BYTE      DPH
      00000082H   SFRSYM    DATA     BYTE      DPL
      00000098H.4 SFRSYM    DATA     BIT       REN
      00000080H.4 SFRSYM    DATA     BIT       OLED_SCL
      000000B0H.0 SFRSYM    DATA     BIT       RXD
      000000B0H.1 SFRSYM    DATA     BIT       TXD
      000000D0H.5 SFRSYM    DATA     BIT       F0
      000000D0H   SFRSYM    DATA     BYTE      PSW

      01001635H   BLOCK     CODE     ---       LVL=0
      01001635H   BLOCK     CODE     NEAR LAB  LVL=1
      0000003CH   SYMBOL    DATA     CHAR      a
      0000003DH   SYMBOL    DATA     BYTE      KeyValue
      ---         BLOCKEND  ---      ---       LVL=1
      01001635H   LINE      CODE     ---       #8
      01001635H   LINE      CODE     ---       #9
      01001635H   LINE      CODE     ---       #10
      01001638H   LINE      CODE     ---       #12
      0100163BH   LINE      CODE     ---       #13
      01001642H   LINE      CODE     ---       #14
      01001642H   LINE      CODE     ---       #15
      01001647H   LINE      CODE     ---       #16
      0100164EH   LINE      CODE     ---       #17
LX51 LINKER/LOCATER V4.66.97.0                                                        05/18/2022  18:07:15  PAGE 27


      0100164EH   LINE      CODE     ---       #19
      01001651H   LINE      CODE     ---       #20
      01001663H   LINE      CODE     ---       #21
      01001663H   LINE      CODE     ---       #22
      01001668H   LINE      CODE     ---       #23
      0100166DH   LINE      CODE     ---       #24
      01001672H   LINE      CODE     ---       #25
      01001675H   LINE      CODE     ---       #26
      01001675H   LINE      CODE     ---       #28
      01001678H   LINE      CODE     ---       #29
      01001689H   LINE      CODE     ---       #30
      01001689H   LINE      CODE     ---       #31
      0100168BH   LINE      CODE     ---       #32
      0100168FH   LINE      CODE     ---       #33
      01001693H   LINE      CODE     ---       #34
      01001699H   LINE      CODE     ---       #35
      01001699H   LINE      CODE     ---       #36
      010016B2H   LINE      CODE     ---       #37
      010016B2H   LINE      CODE     ---       #38
      010016B7H   LINE      CODE     ---       #39
      010016B9H   LINE      CODE     ---       #40
      010016BBH   LINE      CODE     ---       #41
      010016BBH   LINE      CODE     ---       #42
      010016BBH   LINE      CODE     ---       #44
      010016BEH   LINE      CODE     ---       #45
      010016C0H   LINE      CODE     ---       #46
      ---         BLOCKEND  ---      ---       LVL=0

      ---         MODULE    ---      ---       AT24C02
      01001CDAH   PUBLIC    CODE     ---       _At24c02Read
      01001D16H   PUBLIC    CODE     ---       _At24c02Write
      01001C08H   PUBLIC    CODE     ---       I2cReadByte
      010019A5H   PUBLIC    CODE     ---       _I2cSendByte
      01001E28H   PUBLIC    CODE     ---       I2cStop
      01001DDDH   PUBLIC    CODE     ---       I2cStart
      01001CBBH   PUBLIC    CODE     ---       Delay10us
      00000080H   SFRSYM    DATA     BYTE      P0
      00000090H   SFRSYM    DATA     BYTE      P1
      000000A0H   SFRSYM    DATA     BYTE      P2
      000000B0H   SFRSYM    DATA     BYTE      P3
      000000B0H.4 SFRSYM    DATA     BIT       T0
      000000D0H.6 SFRSYM    DATA     BIT       AC
      000000B0H.5 SFRSYM    DATA     BIT       T1
      000000A8H.7 SFRSYM    DATA     BIT       EA
      00000080H.5 SFRSYM    DATA     BIT       SDA1
      000000A8H   SFRSYM    DATA     BYTE      IE
      00000080H.4 SFRSYM    DATA     BIT       SCL1
      000000B0H.7 SFRSYM    DATA     BIT       RD
      000000A8H.4 SFRSYM    DATA     BIT       ES
      000000B8H   SFRSYM    DATA     BYTE      IP
      00000098H.0 SFRSYM    DATA     BIT       RI
      000000B0H.2 SFRSYM    DATA     BIT       INT0
      000000D0H.7 SFRSYM    DATA     BIT       CY
      00000098H.1 SFRSYM    DATA     BIT       TI
      000000B0H.3 SFRSYM    DATA     BIT       INT1
      000000B8H.4 SFRSYM    DATA     BIT       PS
      00000081H   SFRSYM    DATA     BYTE      SP
      000000D0H.2 SFRSYM    DATA     BIT       OV
      000000B0H.6 SFRSYM    DATA     BIT       WR
      00000099H   SFRSYM    DATA     BYTE      SBUF
      00000087H   SFRSYM    DATA     BYTE      PCON
      00000098H   SFRSYM    DATA     BYTE      SCON
      00000080H.5 SFRSYM    DATA     BIT       OLED_SDIN
      00000089H   SFRSYM    DATA     BYTE      TMOD
      00000088H   SFRSYM    DATA     BYTE      TCON
LX51 LINKER/LOCATER V4.66.97.0                                                        05/18/2022  18:07:15  PAGE 28


      00000088H.1 SFRSYM    DATA     BIT       IE0
      00000088H.3 SFRSYM    DATA     BIT       IE1
      000000F0H   SFRSYM    DATA     BYTE      B
      000000E0H   SFRSYM    DATA     BYTE      ACC
      000000A8H.1 SFRSYM    DATA     BIT       ET0
      000000A8H.3 SFRSYM    DATA     BIT       ET1
      00000088H.5 SFRSYM    DATA     BIT       TF0
      00000088H.7 SFRSYM    DATA     BIT       TF1
      00000098H.2 SFRSYM    DATA     BIT       RB8
      0000008CH   SFRSYM    DATA     BYTE      TH0
      000000A8H.0 SFRSYM    DATA     BIT       EX0
      00000088H.0 SFRSYM    DATA     BIT       IT0
      0000008DH   SFRSYM    DATA     BYTE      TH1
      00000098H.3 SFRSYM    DATA     BIT       TB8
      000000A8H.2 SFRSYM    DATA     BIT       EX1
      00000088H.2 SFRSYM    DATA     BIT       IT1
      000000D0H.0 SFRSYM    DATA     BIT       P
      00000098H.7 SFRSYM    DATA     BIT       SM0
      0000008AH   SFRSYM    DATA     BYTE      TL0
      00000098H.6 SFRSYM    DATA     BIT       SM1
      0000008BH   SFRSYM    DATA     BYTE      TL1
      00000098H.5 SFRSYM    DATA     BIT       SM2
      000000B8H.1 SFRSYM    DATA     BIT       PT0
      000000B8H.3 SFRSYM    DATA     BIT       PT1
      000000D0H.3 SFRSYM    DATA     BIT       RS0
      00000088H.4 SFRSYM    DATA     BIT       TR0
      000000D0H.4 SFRSYM    DATA     BIT       RS1
      00000088H.6 SFRSYM    DATA     BIT       TR1
      000000B8H.0 SFRSYM    DATA     BIT       PX0
      000000B8H.2 SFRSYM    DATA     BIT       PX1
      00000083H   SFRSYM    DATA     BYTE      DPH
      00000082H   SFRSYM    DATA     BYTE      DPL
      00000098H.4 SFRSYM    DATA     BIT       REN
      00000080H.4 SFRSYM    DATA     BIT       OLED_SCL
      000000B0H.0 SFRSYM    DATA     BIT       RXD
      000000B0H.1 SFRSYM    DATA     BIT       TXD
      000000D0H.5 SFRSYM    DATA     BIT       F0
      000000D0H   SFRSYM    DATA     BYTE      PSW

      01001CB6H   BLOCK     CODE     ---       LVL=0
      ---         BLOCKEND  ---      ---       LVL=0

      01001CBBH   BLOCK     CODE     ---       LVL=0
      00000006H   SYMBOL    DATA     BYTE      a
      00000007H   SYMBOL    DATA     BYTE      b
      01001CBBH   BLOCK     CODE     NEAR LAB  LVL=1
      00000006H   SYMBOL    DATA     BYTE      a
      00000007H   SYMBOL    DATA     BYTE      b
      ---         BLOCKEND  ---      ---       LVL=1
      01001CBBH   LINE      CODE     ---       #9
      01001CBBH   LINE      CODE     ---       #10
      01001CBBH   LINE      CODE     ---       #12
      01001CC7H   LINE      CODE     ---       #13
      01001CD9H   LINE      CODE     ---       #14
      ---         BLOCKEND  ---      ---       LVL=0

      01001DDDH   BLOCK     CODE     ---       LVL=0
      01001DDDH   LINE      CODE     ---       #22
      01001DDDH   LINE      CODE     ---       #23
      01001DDDH   LINE      CODE     ---       #24
      01001DDFH   LINE      CODE     ---       #25
      01001DDFH   LINE      CODE     ---       #26
      01001DDFH   LINE      CODE     ---       #27
      01001DE2H   LINE      CODE     ---       #28
      01001DE4H   LINE      CODE     ---       #29
LX51 LINKER/LOCATER V4.66.97.0                                                        05/18/2022  18:07:15  PAGE 29


      01001DE7H   LINE      CODE     ---       #30
      01001DE9H   LINE      CODE     ---       #31
      ---         BLOCKEND  ---      ---       LVL=0

      01001E28H   BLOCK     CODE     ---       LVL=0
      01001E28H   LINE      CODE     ---       #41
      01001E28H   LINE      CODE     ---       #42
      01001E28H   LINE      CODE     ---       #43
      01001E2AH   LINE      CODE     ---       #44
      01001E2AH   LINE      CODE     ---       #45
      01001E2AH   LINE      CODE     ---       #46
      01001E2DH   LINE      CODE     ---       #47
      01001E2FH   LINE      CODE     ---       #48
      ---         BLOCKEND  ---      ---       LVL=0

      010019A5H   BLOCK     CODE     ---       LVL=0
      00000005H   SYMBOL    DATA     BYTE      dat
      010019A7H   BLOCK     CODE     NEAR LAB  LVL=1
      00000003H   SYMBOL    DATA     BYTE      a
      00000002H   SYMBOL    DATA     BYTE      b
      ---         BLOCKEND  ---      ---       LVL=1
      010019A5H   LINE      CODE     ---       #58
      010019A7H   LINE      CODE     ---       #59
      010019A7H   LINE      CODE     ---       #60
      010019AAH   LINE      CODE     ---       #61
      010019B4H   LINE      CODE     ---       #62
      010019B4H   LINE      CODE     ---       #63
      010019BFH   LINE      CODE     ---       #64
      010019C3H   LINE      CODE     ---       #65
      010019C3H   LINE      CODE     ---       #66
      010019C3H   LINE      CODE     ---       #67
      010019C6H   LINE      CODE     ---       #68
      010019C8H   LINE      CODE     ---       #69
      010019CBH   LINE      CODE     ---       #70
      010019CEH   LINE      CODE     ---       #71
      010019D0H   LINE      CODE     ---       #72
      010019D3H   LINE      CODE     ---       #73
      010019D5H   LINE      CODE     ---       #74
      010019D8H   LINE      CODE     ---       #75
      010019D8H   LINE      CODE     ---       #76
      010019D9H   LINE      CODE     ---       #77
      010019E3H   LINE      CODE     ---       #78
      010019E3H   LINE      CODE     ---       #79
      010019E5H   LINE      CODE     ---       #80
      010019E8H   LINE      CODE     ---       #81
      010019EBH   LINE      CODE     ---       #82
      010019EBH   LINE      CODE     ---       #83
      010019EBH   LINE      CODE     ---       #84
      010019EDH   LINE      CODE     ---       #85
      010019F0H   LINE      CODE     ---       #86
      010019F2H   LINE      CODE     ---       #87
      ---         BLOCKEND  ---      ---       LVL=0

      01001C08H   BLOCK     CODE     ---       LVL=0
      01001C08H   BLOCK     CODE     NEAR LAB  LVL=1
      00000005H   SYMBOL    DATA     BYTE      a
      00000004H   SYMBOL    DATA     BYTE      dat
      ---         BLOCKEND  ---      ---       LVL=1
      01001C08H   LINE      CODE     ---       #96
      01001C08H   LINE      CODE     ---       #97
      01001C08H   LINE      CODE     ---       #98
      01001C0BH   LINE      CODE     ---       #99
      01001C0DH   LINE      CODE     ---       #100
      01001C10H   LINE      CODE     ---       #101
      01001C1AH   LINE      CODE     ---       #102
LX51 LINKER/LOCATER V4.66.97.0                                                        05/18/2022  18:07:15  PAGE 30


      01001C1AH   LINE      CODE     ---       #103
      01001C1CH   LINE      CODE     ---       #104
      01001C1FH   LINE      CODE     ---       #105
      01001C23H   LINE      CODE     ---       #106
      01001C29H   LINE      CODE     ---       #107
      01001C2CH   LINE      CODE     ---       #108
      01001C2EH   LINE      CODE     ---       #109
      01001C31H   LINE      CODE     ---       #110
      01001C34H   LINE      CODE     ---       #111
      01001C36H   LINE      CODE     ---       #112
      ---         BLOCKEND  ---      ---       LVL=0

      01001D16H   BLOCK     CODE     ---       LVL=0
      00000001H   SYMBOL    DATA     BYTE      addr
      00000004H   SYMBOL    DATA     BYTE      dat
      01001D16H   LINE      CODE     ---       #122
      01001D1AH   LINE      CODE     ---       #123
      01001D1AH   LINE      CODE     ---       #124
      01001D1DH   LINE      CODE     ---       #125
      01001D22H   LINE      CODE     ---       #126
      01001D27H   LINE      CODE     ---       #127
      01001D2CH   LINE      CODE     ---       #128
      ---         BLOCKEND  ---      ---       LVL=0

      01001CDAH   BLOCK     CODE     ---       LVL=0
      00000004H   SYMBOL    DATA     BYTE      addr
      01001CDCH   BLOCK     CODE     NEAR LAB  LVL=1
      00000005H   SYMBOL    DATA     BYTE      num
      ---         BLOCKEND  ---      ---       LVL=1
      01001CDAH   LINE      CODE     ---       #137
      01001CDCH   LINE      CODE     ---       #138
      01001CDCH   LINE      CODE     ---       #140
      01001CDFH   LINE      CODE     ---       #141
      01001CE4H   LINE      CODE     ---       #142
      01001CE9H   LINE      CODE     ---       #143
      01001CECH   LINE      CODE     ---       #144
      01001CF1H   LINE      CODE     ---       #145
      01001CF6H   LINE      CODE     ---       #146
      01001CF9H   LINE      CODE     ---       #147
      01001CFBH   LINE      CODE     ---       #148
      ---         BLOCKEND  ---      ---       LVL=0

      ---         MODULE    ---      ---       ADS1015
      01001E07H   PUBLIC    CODE     ---       _Read_conversion
      01001B16H   PUBLIC    CODE     ---       _Start_conversion
      00000080H   SFRSYM    DATA     BYTE      P0
      00000090H   SFRSYM    DATA     BYTE      P1
      000000A0H   SFRSYM    DATA     BYTE      P2
      000000B0H   SFRSYM    DATA     BYTE      P3
      000000B0H.4 SFRSYM    DATA     BIT       T0
      000000D0H.6 SFRSYM    DATA     BIT       AC
      000000B0H.5 SFRSYM    DATA     BIT       T1
      000000A8H.7 SFRSYM    DATA     BIT       EA
      00000080H.5 SFRSYM    DATA     BIT       SDA1
      000000A8H   SFRSYM    DATA     BYTE      IE
      00000080H.4 SFRSYM    DATA     BIT       SCL1
      000000B0H.7 SFRSYM    DATA     BIT       RD
      000000A8H.4 SFRSYM    DATA     BIT       ES
      000000B8H   SFRSYM    DATA     BYTE      IP
      00000098H.0 SFRSYM    DATA     BIT       RI
      000000B0H.2 SFRSYM    DATA     BIT       INT0
      000000D0H.7 SFRSYM    DATA     BIT       CY
      00000098H.1 SFRSYM    DATA     BIT       TI
      000000B0H.3 SFRSYM    DATA     BIT       INT1
      000000B8H.4 SFRSYM    DATA     BIT       PS
LX51 LINKER/LOCATER V4.66.97.0                                                        05/18/2022  18:07:15  PAGE 31


      00000081H   SFRSYM    DATA     BYTE      SP
      000000D0H.2 SFRSYM    DATA     BIT       OV
      000000B0H.6 SFRSYM    DATA     BIT       WR
      00000099H   SFRSYM    DATA     BYTE      SBUF
      00000087H   SFRSYM    DATA     BYTE      PCON
      00000098H   SFRSYM    DATA     BYTE      SCON
      00000080H.5 SFRSYM    DATA     BIT       OLED_SDIN
      00000089H   SFRSYM    DATA     BYTE      TMOD
      00000088H   SFRSYM    DATA     BYTE      TCON
      00000088H.1 SFRSYM    DATA     BIT       IE0
      00000088H.3 SFRSYM    DATA     BIT       IE1
      000000F0H   SFRSYM    DATA     BYTE      B
      000000E0H   SFRSYM    DATA     BYTE      ACC
      000000A8H.1 SFRSYM    DATA     BIT       ET0
      000000A8H.3 SFRSYM    DATA     BIT       ET1
      00000088H.5 SFRSYM    DATA     BIT       TF0
      00000088H.7 SFRSYM    DATA     BIT       TF1
      00000098H.2 SFRSYM    DATA     BIT       RB8
      0000008CH   SFRSYM    DATA     BYTE      TH0
      000000A8H.0 SFRSYM    DATA     BIT       EX0
      00000088H.0 SFRSYM    DATA     BIT       IT0
      0000008DH   SFRSYM    DATA     BYTE      TH1
      00000098H.3 SFRSYM    DATA     BIT       TB8
      000000A8H.2 SFRSYM    DATA     BIT       EX1
      00000088H.2 SFRSYM    DATA     BIT       IT1
      000000D0H.0 SFRSYM    DATA     BIT       P
      00000098H.7 SFRSYM    DATA     BIT       SM0
      0000008AH   SFRSYM    DATA     BYTE      TL0
      00000098H.6 SFRSYM    DATA     BIT       SM1
      0000008BH   SFRSYM    DATA     BYTE      TL1
      00000098H.5 SFRSYM    DATA     BIT       SM2
      000000B8H.1 SFRSYM    DATA     BIT       PT0
      000000B8H.3 SFRSYM    DATA     BIT       PT1
      000000D0H.3 SFRSYM    DATA     BIT       RS0
      00000088H.4 SFRSYM    DATA     BIT       TR0
      000000D0H.4 SFRSYM    DATA     BIT       RS1
      00000088H.6 SFRSYM    DATA     BIT       TR1
      00000080H.5 SFRSYM    DATA     BIT       SDA
      000000B8H.0 SFRSYM    DATA     BIT       PX0
      000000B8H.2 SFRSYM    DATA     BIT       PX1
      00000083H   SFRSYM    DATA     BYTE      DPH
      00000082H   SFRSYM    DATA     BYTE      DPL
      00000080H.4 SFRSYM    DATA     BIT       SCL
      00000098H.4 SFRSYM    DATA     BIT       REN
      00000080H.4 SFRSYM    DATA     BIT       OLED_SCL
      000000B0H.0 SFRSYM    DATA     BIT       RXD
      000000B0H.1 SFRSYM    DATA     BIT       TXD
      000000D0H.5 SFRSYM    DATA     BIT       F0
      000000D0H   SFRSYM    DATA     BYTE      PSW

      01001B16H   BLOCK     CODE     ---       LVL=0
      00000007H   SYMBOL    DATA     BYTE      sla_addr
      00000005H   SYMBOL    DATA     BYTE      sub_addr
      00000003H   SYMBOL    DATA     BYTE      ch
      01001B16H   BLOCK     CODE     NEAR LAB  LVL=1
      00000020H.0 SYMBOL    BIT      BIT       rec_result
      00000028H   SYMBOL    DATA     ---       uca_wr_dat
      ---         BLOCKEND  ---      ---       LVL=1
      01001B16H   LINE      CODE     ---       #24
      01001B16H   LINE      CODE     ---       #25
      01001B16H   LINE      CODE     ---       #29
      01001B1EH   LINE      CODE     ---       #30
      01001B1EH   LINE      CODE     ---       #31
      01001B21H   LINE      CODE     ---       #32
      01001B23H   LINE      CODE     ---       #33
LX51 LINKER/LOCATER V4.66.97.0                                                        05/18/2022  18:07:15  PAGE 32


      01001B2BH   LINE      CODE     ---       #34
      01001B2BH   LINE      CODE     ---       #35
      01001B2EH   LINE      CODE     ---       #36
      01001B30H   LINE      CODE     ---       #37
      01001B38H   LINE      CODE     ---       #38
      01001B38H   LINE      CODE     ---       #39
      01001B3BH   LINE      CODE     ---       #40
      01001B3DH   LINE      CODE     ---       #41
      01001B45H   LINE      CODE     ---       #42
      01001B45H   LINE      CODE     ---       #43
      01001B48H   LINE      CODE     ---       #44
      01001B48H   LINE      CODE     ---       #45
      01001B4BH   LINE      CODE     ---       #47
      01001B58H   LINE      CODE     ---       #49
      01001B5AH   LINE      CODE     ---       #50
      ---         BLOCKEND  ---      ---       LVL=0

      01001E07H   BLOCK     CODE     ---       LVL=0
      00000007H   SYMBOL    DATA     BYTE      sla_addr
      00000005H   SYMBOL    DATA     BYTE      sub_addr
      00000001H   SYMBOL    DATA     ---       rec_buf
      01001E07H   BLOCK     CODE     NEAR LAB  LVL=1
      00000020H.0 SYMBOL    BIT      BIT       rec_result
      ---         BLOCKEND  ---      ---       LVL=1
      01001E07H   LINE      CODE     ---       #60
      01001E07H   LINE      CODE     ---       #61
      01001E07H   LINE      CODE     ---       #64
      01001E0FH   LINE      CODE     ---       #66
      01001E11H   LINE      CODE     ---       #67
      ---         BLOCKEND  ---      ---       LVL=0

      ---         MODULE    ---      ---       I2C
      00000020H.6 PUBLIC    BIT      BIT       ack
      00000056H   PUBLIC    DATA     BYTE      ?_IRcvStr?BYTE
      01001A3EH   PUBLIC    CODE     ---       _IRcvStr
      00000063H   PUBLIC    DATA     BYTE      ?_ISendStr?BYTE
      01001BD6H   PUBLIC    CODE     ---       _ISendStr
      01001D2FH   PUBLIC    CODE     ---       Ack_I2c
      01001C37H   PUBLIC    CODE     ---       RcvByte
      01001A8BH   PUBLIC    CODE     ---       _SendByte
      01001D8BH   PUBLIC    CODE     ---       Stop_I2c
      01001D75H   PUBLIC    CODE     ---       Start_I2c
      00000080H   SFRSYM    DATA     BYTE      P0
      00000090H   SFRSYM    DATA     BYTE      P1
      000000A0H   SFRSYM    DATA     BYTE      P2
      000000B0H   SFRSYM    DATA     BYTE      P3
      000000B0H.4 SFRSYM    DATA     BIT       T0
      000000D0H.6 SFRSYM    DATA     BIT       AC
      000000B0H.5 SFRSYM    DATA     BIT       T1
      000000A8H.7 SFRSYM    DATA     BIT       EA
      00000080H.5 SFRSYM    DATA     BIT       SDA1
      000000A8H   SFRSYM    DATA     BYTE      IE
      00000080H.4 SFRSYM    DATA     BIT       SCL1
      000000B0H.7 SFRSYM    DATA     BIT       RD
      000000A8H.4 SFRSYM    DATA     BIT       ES
      000000B8H   SFRSYM    DATA     BYTE      IP
      00000098H.0 SFRSYM    DATA     BIT       RI
      000000B0H.2 SFRSYM    DATA     BIT       INT0
      000000D0H.7 SFRSYM    DATA     BIT       CY
      00000098H.1 SFRSYM    DATA     BIT       TI
      000000B0H.3 SFRSYM    DATA     BIT       INT1
      000000B8H.4 SFRSYM    DATA     BIT       PS
      00000081H   SFRSYM    DATA     BYTE      SP
      000000D0H.2 SFRSYM    DATA     BIT       OV
      000000B0H.6 SFRSYM    DATA     BIT       WR
LX51 LINKER/LOCATER V4.66.97.0                                                        05/18/2022  18:07:15  PAGE 33


      00000099H   SFRSYM    DATA     BYTE      SBUF
      00000087H   SFRSYM    DATA     BYTE      PCON
      00000098H   SFRSYM    DATA     BYTE      SCON
      00000080H.5 SFRSYM    DATA     BIT       OLED_SDIN
      00000089H   SFRSYM    DATA     BYTE      TMOD
      00000088H   SFRSYM    DATA     BYTE      TCON
      00000088H.1 SFRSYM    DATA     BIT       IE0
      00000088H.3 SFRSYM    DATA     BIT       IE1
      000000F0H   SFRSYM    DATA     BYTE      B
      000000E0H   SFRSYM    DATA     BYTE      ACC
      000000A8H.1 SFRSYM    DATA     BIT       ET0
      000000A8H.3 SFRSYM    DATA     BIT       ET1
      00000088H.5 SFRSYM    DATA     BIT       TF0
      00000088H.7 SFRSYM    DATA     BIT       TF1
      00000098H.2 SFRSYM    DATA     BIT       RB8
      0000008CH   SFRSYM    DATA     BYTE      TH0
      000000A8H.0 SFRSYM    DATA     BIT       EX0
      00000088H.0 SFRSYM    DATA     BIT       IT0
      0000008DH   SFRSYM    DATA     BYTE      TH1
      00000098H.3 SFRSYM    DATA     BIT       TB8
      000000A8H.2 SFRSYM    DATA     BIT       EX1
      00000088H.2 SFRSYM    DATA     BIT       IT1
      000000D0H.0 SFRSYM    DATA     BIT       P
      00000098H.7 SFRSYM    DATA     BIT       SM0
      0000008AH   SFRSYM    DATA     BYTE      TL0
      00000098H.6 SFRSYM    DATA     BIT       SM1
      0000008BH   SFRSYM    DATA     BYTE      TL1
      00000098H.5 SFRSYM    DATA     BIT       SM2
      000000B8H.1 SFRSYM    DATA     BIT       PT0
      000000B8H.3 SFRSYM    DATA     BIT       PT1
      000000D0H.3 SFRSYM    DATA     BIT       RS0
      00000088H.4 SFRSYM    DATA     BIT       TR0
      000000D0H.4 SFRSYM    DATA     BIT       RS1
      00000088H.6 SFRSYM    DATA     BIT       TR1
      00000080H.5 SFRSYM    DATA     BIT       SDA
      000000B8H.0 SFRSYM    DATA     BIT       PX0
      000000B8H.2 SFRSYM    DATA     BIT       PX1
      00000083H   SFRSYM    DATA     BYTE      DPH
      00000082H   SFRSYM    DATA     BYTE      DPL
      00000080H.4 SFRSYM    DATA     BIT       SCL
      00000098H.4 SFRSYM    DATA     BIT       REN
      00000080H.4 SFRSYM    DATA     BIT       OLED_SCL
      000000B0H.0 SFRSYM    DATA     BIT       RXD
      000000B0H.1 SFRSYM    DATA     BIT       TXD
      000000D0H.5 SFRSYM    DATA     BIT       F0
      000000D0H   SFRSYM    DATA     BYTE      PSW
      01001A88H   SYMBOL    CODE     ---       _SendByte
      01001C37H   SYMBOL    CODE     ---       RcvByte
      01001D2FH   SYMBOL    CODE     ---       Ack_I2c
      01001D75H   SYMBOL    CODE     ---       Start_I2c
      01001D8BH   SYMBOL    CODE     ---       Stop_I2c

      01001DADH   BLOCK     CODE     ---       LVL=0
      ---         BLOCKEND  ---      ---       LVL=0

      01001D75H   BLOCK     CODE     ---       LVL=0
      01001D75H   LINE      CODE     ---       #32
      01001D75H   LINE      CODE     ---       #33
      01001D75H   LINE      CODE     ---       #34
      01001D77H   LINE      CODE     ---       #35
      01001D78H   LINE      CODE     ---       #36
      01001D7AH   LINE      CODE     ---       #37
      01001D7BH   LINE      CODE     ---       #38
      01001D7CH   LINE      CODE     ---       #39
      01001D7DH   LINE      CODE     ---       #40
LX51 LINKER/LOCATER V4.66.97.0                                                        05/18/2022  18:07:15  PAGE 34


      01001D7EH   LINE      CODE     ---       #41
      01001D7FH   LINE      CODE     ---       #42
      01001D81H   LINE      CODE     ---       #43
      01001D82H   LINE      CODE     ---       #44
      01001D83H   LINE      CODE     ---       #45
      01001D84H   LINE      CODE     ---       #46
      01001D85H   LINE      CODE     ---       #47
      01001D86H   LINE      CODE     ---       #48
      01001D88H   LINE      CODE     ---       #49
      01001D89H   LINE      CODE     ---       #50
      01001D8AH   LINE      CODE     ---       #51
      ---         BLOCKEND  ---      ---       LVL=0

      01001D8BH   BLOCK     CODE     ---       LVL=0
      01001D8BH   LINE      CODE     ---       #63
      01001D8BH   LINE      CODE     ---       #64
      01001D8BH   LINE      CODE     ---       #65
      01001D8DH   LINE      CODE     ---       #66
      01001D8EH   LINE      CODE     ---       #67
      01001D90H   LINE      CODE     ---       #68
      01001D91H   LINE      CODE     ---       #69
      01001D92H   LINE      CODE     ---       #70
      01001D93H   LINE      CODE     ---       #71
      01001D94H   LINE      CODE     ---       #72
      01001D95H   LINE      CODE     ---       #73
      01001D97H   LINE      CODE     ---       #74
      01001D98H   LINE      CODE     ---       #75
      01001D99H   LINE      CODE     ---       #76
      01001D9AH   LINE      CODE     ---       #77
      01001D9BH   LINE      CODE     ---       #78
      ---         BLOCKEND  ---      ---       LVL=0

      01001A88H   BLOCK     CODE     ---       LVL=0
      ---         BLOCKEND  ---      ---       LVL=0

      01001A8BH   BLOCK     CODE     ---       LVL=0
      00000007H   SYMBOL    DATA     BYTE      c
      00000006H   SYMBOL    DATA     BYTE      BitCnt
      01001A8BH   BLOCK     CODE     NEAR LAB  LVL=1
      00000006H   SYMBOL    DATA     BYTE      BitCnt
      ---         BLOCKEND  ---      ---       LVL=1
      01001A8BH   LINE      CODE     ---       #93
      01001A8BH   LINE      CODE     ---       #94
      01001A8BH   LINE      CODE     ---       #96
      01001A97H   LINE      CODE     ---       #97
      01001A97H   LINE      CODE     ---       #98
      01001AA4H   LINE      CODE     ---       #99
      01001AA4H   LINE      CODE     ---       #100
      01001AA6H   LINE      CODE     ---       #101
      01001AA8H   LINE      CODE     ---       #103
      01001AA8H   LINE      CODE     ---       #104
      01001AAAH   LINE      CODE     ---       #105
      01001AAAH   LINE      CODE     ---       #107
      01001AABH   LINE      CODE     ---       #108
      01001AADH   LINE      CODE     ---       #109
      01001AAEH   LINE      CODE     ---       #110
      01001AAFH   LINE      CODE     ---       #111
      01001AB0H   LINE      CODE     ---       #112
      01001AB1H   LINE      CODE     ---       #113
      01001AB2H   LINE      CODE     ---       #114
      01001AB4H   LINE      CODE     ---       #115
      01001AB7H   LINE      CODE     ---       #117
      01001AB8H   LINE      CODE     ---       #118
      01001AB9H   LINE      CODE     ---       #119
      01001ABBH   LINE      CODE     ---       #120
LX51 LINKER/LOCATER V4.66.97.0                                                        05/18/2022  18:07:15  PAGE 35


      01001ABCH   LINE      CODE     ---       #121
      01001ABDH   LINE      CODE     ---       #122
      01001ABFH   LINE      CODE     ---       #123
      01001AC0H   LINE      CODE     ---       #124
      01001AC1H   LINE      CODE     ---       #125
      01001AC2H   LINE      CODE     ---       #126
      01001AC5H   LINE      CODE     ---       #127
      01001AC5H   LINE      CODE     ---       #128
      01001AC7H   LINE      CODE     ---       #129
      01001AC9H   LINE      CODE     ---       #131
      01001AC9H   LINE      CODE     ---       #132
      01001ACBH   LINE      CODE     ---       #133
      01001ACBH   LINE      CODE     ---       #135
      01001ACDH   LINE      CODE     ---       #136
      01001ACEH   LINE      CODE     ---       #137
      01001ACFH   LINE      CODE     ---       #138
      ---         BLOCKEND  ---      ---       LVL=0

      01001C37H   BLOCK     CODE     ---       LVL=0
      01001C37H   BLOCK     CODE     NEAR LAB  LVL=1
      00000007H   SYMBOL    DATA     BYTE      retc
      00000006H   SYMBOL    DATA     BYTE      BitCnt
      ---         BLOCKEND  ---      ---       LVL=1
      01001C37H   LINE      CODE     ---       #151
      01001C37H   LINE      CODE     ---       #152
      01001C37H   LINE      CODE     ---       #156
      01001C39H   LINE      CODE     ---       #157
      01001C3BH   LINE      CODE     ---       #158
      01001C46H   LINE      CODE     ---       #159
      01001C46H   LINE      CODE     ---       #160
      01001C47H   LINE      CODE     ---       #161
      01001C49H   LINE      CODE     ---       #162
      01001C4AH   LINE      CODE     ---       #163
      01001C4BH   LINE      CODE     ---       #164
      01001C4CH   LINE      CODE     ---       #165
      01001C4DH   LINE      CODE     ---       #166
      01001C4EH   LINE      CODE     ---       #167
      01001C50H   LINE      CODE     ---       #168
      01001C51H   LINE      CODE     ---       #169
      01001C52H   LINE      CODE     ---       #170
      01001C56H   LINE      CODE     ---       #171
      01001C5AH   LINE      CODE     ---       #172
      01001C5BH   LINE      CODE     ---       #173
      01001C5CH   LINE      CODE     ---       #174
      01001C5FH   LINE      CODE     ---       #175
      01001C61H   LINE      CODE     ---       #176
      01001C62H   LINE      CODE     ---       #177
      01001C63H   LINE      CODE     ---       #179
      01001C63H   LINE      CODE     ---       #180
      ---         BLOCKEND  ---      ---       LVL=0

      01001D2FH   BLOCK     CODE     ---       LVL=0
      00000020H.4 SYMBOL    BIT      BIT       a
      01001D2FH   LINE      CODE     ---       #192
      01001D2FH   LINE      CODE     ---       #193
      01001D2FH   LINE      CODE     ---       #195
      01001D32H   LINE      CODE     ---       #196
      01001D32H   LINE      CODE     ---       #197
      01001D34H   LINE      CODE     ---       #198
      01001D36H   LINE      CODE     ---       #200
      01001D36H   LINE      CODE     ---       #201
      01001D38H   LINE      CODE     ---       #202
      01001D38H   LINE      CODE     ---       #203
      01001D39H   LINE      CODE     ---       #204
      01001D3AH   LINE      CODE     ---       #205
LX51 LINKER/LOCATER V4.66.97.0                                                        05/18/2022  18:07:15  PAGE 36


      01001D3BH   LINE      CODE     ---       #206
      01001D3DH   LINE      CODE     ---       #207
      01001D3EH   LINE      CODE     ---       #208
      01001D3FH   LINE      CODE     ---       #209
      01001D40H   LINE      CODE     ---       #210
      01001D41H   LINE      CODE     ---       #211
      01001D42H   LINE      CODE     ---       #212
      01001D44H   LINE      CODE     ---       #213
      01001D45H   LINE      CODE     ---       #214
      01001D46H   LINE      CODE     ---       #215
      ---         BLOCKEND  ---      ---       LVL=0
      00000007H   SYMBOL    DATA     BYTE      sla
      00000005H   SYMBOL    DATA     BYTE      c

      01001BD6H   BLOCK     CODE     ---       LVL=0
      00000006H   SYMBOL    DATA     BYTE      sla
      00000005H   SYMBOL    DATA     BYTE      suba
      00000001H   SYMBOL    DATA     ---       s
      00000068H   SYMBOL    DATA     BYTE      no
      01001BD8H   BLOCK     CODE     NEAR LAB  LVL=1
      00000005H   SYMBOL    DATA     BYTE      i
      ---         BLOCKEND  ---      ---       LVL=1
      01001BD6H   LINE      CODE     ---       #264
      01001BD8H   LINE      CODE     ---       #265
      01001BD8H   LINE      CODE     ---       #268
      01001BD8H   LINE      CODE     ---       #269
      01001BDBH   LINE      CODE     ---       #270
      01001BE0H   LINE      CODE     ---       #271
      01001BE5H   LINE      CODE     ---       #272
      01001BEAH   LINE      CODE     ---       #274
      01001BF2H   LINE      CODE     ---       #275
      01001BF2H   LINE      CODE     ---       #276
      01001BF9H   LINE      CODE     ---       #277
      01001BFEH   LINE      CODE     ---       #278
      01001BFEH   LINE      CODE     ---       #279
      01001C03H   LINE      CODE     ---       #280
      01001C06H   LINE      CODE     ---       #282
      01001C07H   LINE      CODE     ---       #283
      ---         BLOCKEND  ---      ---       LVL=0

      01001A3EH   BLOCK     CODE     ---       LVL=0
      00000004H   SYMBOL    DATA     BYTE      sla
      00000005H   SYMBOL    DATA     BYTE      suba
      00000001H   SYMBOL    DATA     ---       s
      0000005BH   SYMBOL    DATA     BYTE      no
      01001A40H   BLOCK     CODE     NEAR LAB  LVL=1
      00000005H   SYMBOL    DATA     BYTE      i
      ---         BLOCKEND  ---      ---       LVL=1
      01001A3EH   LINE      CODE     ---       #304
      01001A40H   LINE      CODE     ---       #305
      01001A40H   LINE      CODE     ---       #308
      01001A43H   LINE      CODE     ---       #309
      01001A46H   LINE      CODE     ---       #310
      01001A4BH   LINE      CODE     ---       #311
      01001A50H   LINE      CODE     ---       #312
      01001A55H   LINE      CODE     ---       #314
      01001A58H   LINE      CODE     ---       #315
      01001A5EH   LINE      CODE     ---       #316
      01001A63H   LINE      CODE     ---       #318
      01001A6EH   LINE      CODE     ---       #319
      01001A6EH   LINE      CODE     ---       #320
      01001A71H   LINE      CODE     ---       #321
      01001A76H   LINE      CODE     ---       #322
      01001A76H   LINE      CODE     ---       #323
      01001A7BH   LINE      CODE     ---       #324
LX51 LINKER/LOCATER V4.66.97.0                                                        05/18/2022  18:07:15  PAGE 37


      01001A7EH   LINE      CODE     ---       #325
      01001A83H   LINE      CODE     ---       #326
      01001A86H   LINE      CODE     ---       #327
      01001A87H   LINE      CODE     ---       #328
      ---         BLOCKEND  ---      ---       LVL=0
      00000007H   SYMBOL    DATA     BYTE      sla
      00000001H   SYMBOL    DATA     ---       s
      00000005H   SYMBOL    DATA     BYTE      i
      00000007H   SYMBOL    DATA     BYTE      sla
      00000001H   SYMBOL    DATA     ---       s
      00000005H   SYMBOL    DATA     BYTE      i

      ---         MODULE    ---      ---       P8563
      00000051H   PUBLIC    DATA     BYTE      ?_P8563_RcvStr?BYTE
      010019F3H   PUBLIC    CODE     ---       _P8563_RcvStr
      0000005EH   PUBLIC    DATA     BYTE      ?_P8563_SendStr?BYTE
      01001DECH   PUBLIC    CODE     ---       _P8563_SendStr
      00000080H   SFRSYM    DATA     BYTE      P0
      00000090H   SFRSYM    DATA     BYTE      P1
      000000A0H   SFRSYM    DATA     BYTE      P2
      000000B0H   SFRSYM    DATA     BYTE      P3
      000000B0H.4 SFRSYM    DATA     BIT       T0
      000000D0H.6 SFRSYM    DATA     BIT       AC
      000000B0H.5 SFRSYM    DATA     BIT       T1
      000000A8H.7 SFRSYM    DATA     BIT       EA
      00000080H.5 SFRSYM    DATA     BIT       SDA1
      000000A8H   SFRSYM    DATA     BYTE      IE
      00000080H.4 SFRSYM    DATA     BIT       SCL1
      000000B0H.7 SFRSYM    DATA     BIT       RD
      000000A8H.4 SFRSYM    DATA     BIT       ES
      000000B8H   SFRSYM    DATA     BYTE      IP
      00000098H.0 SFRSYM    DATA     BIT       RI
      000000B0H.2 SFRSYM    DATA     BIT       INT0
      000000D0H.7 SFRSYM    DATA     BIT       CY
      00000098H.1 SFRSYM    DATA     BIT       TI
      000000B0H.3 SFRSYM    DATA     BIT       INT1
      000000B8H.4 SFRSYM    DATA     BIT       PS
      00000081H   SFRSYM    DATA     BYTE      SP
      000000D0H.2 SFRSYM    DATA     BIT       OV
      000000B0H.6 SFRSYM    DATA     BIT       WR
      00000099H   SFRSYM    DATA     BYTE      SBUF
      00000087H   SFRSYM    DATA     BYTE      PCON
      00000098H   SFRSYM    DATA     BYTE      SCON
      00000080H.5 SFRSYM    DATA     BIT       OLED_SDIN
      00000089H   SFRSYM    DATA     BYTE      TMOD
      00000088H   SFRSYM    DATA     BYTE      TCON
      00000088H.1 SFRSYM    DATA     BIT       IE0
      00000088H.3 SFRSYM    DATA     BIT       IE1
      000000F0H   SFRSYM    DATA     BYTE      B
      000000E0H   SFRSYM    DATA     BYTE      ACC
      000000A8H.1 SFRSYM    DATA     BIT       ET0
      000000A8H.3 SFRSYM    DATA     BIT       ET1
      00000088H.5 SFRSYM    DATA     BIT       TF0
      00000088H.7 SFRSYM    DATA     BIT       TF1
      00000098H.2 SFRSYM    DATA     BIT       RB8
      0000008CH   SFRSYM    DATA     BYTE      TH0
      000000A8H.0 SFRSYM    DATA     BIT       EX0
      00000088H.0 SFRSYM    DATA     BIT       IT0
      0000008DH   SFRSYM    DATA     BYTE      TH1
      00000098H.3 SFRSYM    DATA     BIT       TB8
      000000A8H.2 SFRSYM    DATA     BIT       EX1
      00000088H.2 SFRSYM    DATA     BIT       IT1
      000000D0H.0 SFRSYM    DATA     BIT       P
      00000098H.7 SFRSYM    DATA     BIT       SM0
      0000008AH   SFRSYM    DATA     BYTE      TL0
LX51 LINKER/LOCATER V4.66.97.0                                                        05/18/2022  18:07:15  PAGE 38


      00000098H.6 SFRSYM    DATA     BIT       SM1
      0000008BH   SFRSYM    DATA     BYTE      TL1
      00000098H.5 SFRSYM    DATA     BIT       SM2
      000000B8H.1 SFRSYM    DATA     BIT       PT0
      000000B8H.3 SFRSYM    DATA     BIT       PT1
      000000D0H.3 SFRSYM    DATA     BIT       RS0
      00000088H.4 SFRSYM    DATA     BIT       TR0
      000000D0H.4 SFRSYM    DATA     BIT       RS1
      00000088H.6 SFRSYM    DATA     BIT       TR1
      00000080H.5 SFRSYM    DATA     BIT       SDA
      000000B8H.0 SFRSYM    DATA     BIT       PX0
      000000B8H.2 SFRSYM    DATA     BIT       PX1
      00000083H   SFRSYM    DATA     BYTE      DPH
      00000082H   SFRSYM    DATA     BYTE      DPL
      00000080H.4 SFRSYM    DATA     BIT       SCL
      00000098H.4 SFRSYM    DATA     BIT       REN
      00000080H.4 SFRSYM    DATA     BIT       OLED_SCL
      000000B0H.0 SFRSYM    DATA     BIT       RXD
      000000B0H.1 SFRSYM    DATA     BIT       TXD
      000000D0H.5 SFRSYM    DATA     BIT       F0
      000000D0H   SFRSYM    DATA     BYTE      PSW

      01001CFCH   BLOCK     CODE     ---       LVL=0
      ---         BLOCKEND  ---      ---       LVL=0

      01001DECH   BLOCK     CODE     ---       LVL=0
      00000005H   SYMBOL    DATA     BYTE      sub_addr
      00000001H   SYMBOL    DATA     ---       send_buf
      00000062H   SYMBOL    DATA     BYTE      data_no
      01001DEEH   BLOCK     CODE     NEAR LAB  LVL=1
      00000020H.5 SYMBOL    BIT      BIT       rec_result
      ---         BLOCKEND  ---      ---       LVL=1
      01001DECH   LINE      CODE     ---       #43
      01001DEEH   LINE      CODE     ---       #44
      01001DEEH   LINE      CODE     ---       #47
      01001DF8H   LINE      CODE     ---       #49
      01001DFAH   LINE      CODE     ---       #50
      ---         BLOCKEND  ---      ---       LVL=0

      010019F3H   BLOCK     CODE     ---       LVL=0
      00000005H   SYMBOL    DATA     BYTE      sub_addr
      00000052H   SYMBOL    DATA     ---       rec_buf
      00000055H   SYMBOL    DATA     BYTE      data_no
      010019FBH   BLOCK     CODE     NEAR LAB  LVL=1
      00000020H.3 SYMBOL    BIT      BIT       rec_result
      ---         BLOCKEND  ---      ---       LVL=1
      010019F3H   LINE      CODE     ---       #68
      010019FBH   LINE      CODE     ---       #69
      010019FBH   LINE      CODE     ---       #72
      01001A05H   LINE      CODE     ---       #74
      01001A10H   LINE      CODE     ---       #75
      01001A1AH   LINE      CODE     ---       #76
      01001A1FH   LINE      CODE     ---       #77
      01001A24H   LINE      CODE     ---       #78
      01001A2EH   LINE      CODE     ---       #79
      01001A3BH   LINE      CODE     ---       #81
      01001A3DH   LINE      CODE     ---       #82
      ---         BLOCKEND  ---      ---       LVL=0

      ---         MODULE    ---      ---       OLED
      01001E42H   PUBLIC    CONST    ---       F6x8
      0100174DH   PUBLIC    CODE     ---       OLED_Init
      00000043H   PUBLIC    DATA     BYTE      ?_OLED_ShowString?BYTE
      01001B5BH   PUBLIC    CODE     ---       _OLED_ShowString
      00000043H   PUBLIC    DATA     BYTE      ?_OLED_ShowNum?BYTE
LX51 LINKER/LOCATER V4.66.97.0                                                        05/18/2022  18:07:15  PAGE 39


      010017D0H   PUBLIC    CODE     ---       _OLED_ShowNum
      01001D47H   PUBLIC    CODE     ---       _oled_pow
      0000004CH   PUBLIC    DATA     BYTE      ?_OLED_ShowChar?BYTE
      0100194FH   PUBLIC    CODE     ---       _OLED_ShowChar
      01001B9FH   PUBLIC    CODE     ---       OLED_Clear
      01001C64H   PUBLIC    CODE     ---       _OLED_Set_Pos
      01001D9CH   PUBLIC    CODE     ---       _OLED_WR_Byte
      01001E1DH   PUBLIC    CODE     ---       _Write_IIC_Data
      01001E12H   PUBLIC    CODE     ---       _Write_IIC_Command
      01001C90H   PUBLIC    CODE     ---       _Write_IIC_Byte
      01001DC8H   PUBLIC    CODE     ---       IIC_Wait_Ack
      01001E3BH   PUBLIC    CODE     ---       IIC_Stop
      01001E32H   PUBLIC    CODE     ---       IIC_Start
      00000080H   SFRSYM    DATA     BYTE      P0
      00000090H   SFRSYM    DATA     BYTE      P1
      000000A0H   SFRSYM    DATA     BYTE      P2
      000000B0H   SFRSYM    DATA     BYTE      P3
      000000B0H.4 SFRSYM    DATA     BIT       T0
      000000D0H.6 SFRSYM    DATA     BIT       AC
      000000B0H.5 SFRSYM    DATA     BIT       T1
      000000A8H.7 SFRSYM    DATA     BIT       EA
      000000A8H   SFRSYM    DATA     BYTE      IE
      000000B0H.7 SFRSYM    DATA     BIT       RD
      000000A8H.4 SFRSYM    DATA     BIT       ES
      000000B8H   SFRSYM    DATA     BYTE      IP
      00000098H.0 SFRSYM    DATA     BIT       RI
      000000B0H.2 SFRSYM    DATA     BIT       INT0
      000000D0H.7 SFRSYM    DATA     BIT       CY
      00000098H.1 SFRSYM    DATA     BIT       TI
      000000B0H.3 SFRSYM    DATA     BIT       INT1
      000000B8H.4 SFRSYM    DATA     BIT       PS
      00000081H   SFRSYM    DATA     BYTE      SP
      000000D0H.2 SFRSYM    DATA     BIT       OV
      000000B0H.6 SFRSYM    DATA     BIT       WR
      00000099H   SFRSYM    DATA     BYTE      SBUF
      00000087H   SFRSYM    DATA     BYTE      PCON
      00000098H   SFRSYM    DATA     BYTE      SCON
      00000080H.5 SFRSYM    DATA     BIT       OLED_SDIN
      00000089H   SFRSYM    DATA     BYTE      TMOD
      00000088H   SFRSYM    DATA     BYTE      TCON
      00000088H.1 SFRSYM    DATA     BIT       IE0
      00000088H.3 SFRSYM    DATA     BIT       IE1
      000000F0H   SFRSYM    DATA     BYTE      B
      000000E0H   SFRSYM    DATA     BYTE      ACC
      000000A8H.1 SFRSYM    DATA     BIT       ET0
      000000A8H.3 SFRSYM    DATA     BIT       ET1
      00000088H.5 SFRSYM    DATA     BIT       TF0
      00000088H.7 SFRSYM    DATA     BIT       TF1
      00000098H.2 SFRSYM    DATA     BIT       RB8
      0000008CH   SFRSYM    DATA     BYTE      TH0
      000000A8H.0 SFRSYM    DATA     BIT       EX0
      00000088H.0 SFRSYM    DATA     BIT       IT0
      0000008DH   SFRSYM    DATA     BYTE      TH1
      00000098H.3 SFRSYM    DATA     BIT       TB8
      000000A8H.2 SFRSYM    DATA     BIT       EX1
      00000088H.2 SFRSYM    DATA     BIT       IT1
      000000D0H.0 SFRSYM    DATA     BIT       P
      00000098H.7 SFRSYM    DATA     BIT       SM0
      0000008AH   SFRSYM    DATA     BYTE      TL0
      00000098H.6 SFRSYM    DATA     BIT       SM1
      0000008BH   SFRSYM    DATA     BYTE      TL1
      00000098H.5 SFRSYM    DATA     BIT       SM2
      000000B8H.1 SFRSYM    DATA     BIT       PT0
      000000B8H.3 SFRSYM    DATA     BIT       PT1
      000000D0H.3 SFRSYM    DATA     BIT       RS0
LX51 LINKER/LOCATER V4.66.97.0                                                        05/18/2022  18:07:15  PAGE 40


      00000088H.4 SFRSYM    DATA     BIT       TR0
      000000D0H.4 SFRSYM    DATA     BIT       RS1
      00000088H.6 SFRSYM    DATA     BIT       TR1
      000000B8H.0 SFRSYM    DATA     BIT       PX0
      000000B8H.2 SFRSYM    DATA     BIT       PX1
      00000083H   SFRSYM    DATA     BYTE      DPH
      00000082H   SFRSYM    DATA     BYTE      DPL
      00000098H.4 SFRSYM    DATA     BIT       REN
      00000080H.4 SFRSYM    DATA     BIT       OLED_SCL
      000000B0H.0 SFRSYM    DATA     BIT       RXD
      000000B0H.1 SFRSYM    DATA     BIT       TXD
      000000D0H.5 SFRSYM    DATA     BIT       F0
      000000D0H   SFRSYM    DATA     BYTE      PSW

      01001AD0H   BLOCK     CODE     ---       LVL=0
      ---         BLOCKEND  ---      ---       LVL=0

      01001E32H   BLOCK     CODE     ---       LVL=0
      01001E32H   LINE      CODE     ---       #11
      01001E32H   LINE      CODE     ---       #12
      01001E32H   LINE      CODE     ---       #13
      01001E34H   LINE      CODE     ---       #15
      01001E36H   LINE      CODE     ---       #21
      01001E38H   LINE      CODE     ---       #26
      01001E3AH   LINE      CODE     ---       #29
      ---         BLOCKEND  ---      ---       LVL=0

      01001E3BH   BLOCK     CODE     ---       LVL=0
      01001E3BH   LINE      CODE     ---       #39
      01001E3BH   LINE      CODE     ---       #40
      01001E3BH   LINE      CODE     ---       #41
      01001E3DH   LINE      CODE     ---       #43
      01001E3FH   LINE      CODE     ---       #49
      01001E41H   LINE      CODE     ---       #54
      ---         BLOCKEND  ---      ---       LVL=0

      01001DBDH   BLOCK     CODE     ---       LVL=0
      ---         BLOCKEND  ---      ---       LVL=0

      01001DC8H   BLOCK     CODE     ---       LVL=0
      01001DC8H   LINE      CODE     ---       #56
      01001DC8H   LINE      CODE     ---       #57
      01001DC8H   LINE      CODE     ---       #58
      01001DCAH   LINE      CODE     ---       #61
      01001DCCH   LINE      CODE     ---       #64
      ---         BLOCKEND  ---      ---       LVL=0

      01001C90H   BLOCK     CODE     ---       LVL=0
      00000007H   SYMBOL    DATA     BYTE      IIC_Byte
      01001C90H   BLOCK     CODE     NEAR LAB  LVL=1
      00000006H   SYMBOL    DATA     BYTE      i
      00000005H   SYMBOL    DATA     BYTE      m
      00000007H   SYMBOL    DATA     BYTE      da
      ---         BLOCKEND  ---      ---       LVL=1
      01001C90H   LINE      CODE     ---       #74
      01001C90H   LINE      CODE     ---       #75
      01001C90H   LINE      CODE     ---       #78
      01001C90H   LINE      CODE     ---       #79
      01001C92H   LINE      CODE     ---       #80
      01001C9AH   LINE      CODE     ---       #81
      01001C9AH   LINE      CODE     ---       #82
      01001C9CH   LINE      CODE     ---       #83
      01001C9FH   LINE      CODE     ---       #84
      01001CA4H   LINE      CODE     ---       #85
      01001CA4H   LINE      CODE     ---       #86
LX51 LINKER/LOCATER V4.66.97.0                                                        05/18/2022  18:07:15  PAGE 41


      01001CA6H   LINE      CODE     ---       #87
      01001CA8H   LINE      CODE     ---       #88
      01001CAAH   LINE      CODE     ---       #89
      01001CAEH   LINE      CODE     ---       #92
      01001CB0H   LINE      CODE     ---       #95
      01001CB2H   LINE      CODE     ---       #98
      01001CB5H   LINE      CODE     ---       #99
      ---         BLOCKEND  ---      ---       LVL=0

      01001E12H   BLOCK     CODE     ---       LVL=0
      00000004H   SYMBOL    DATA     BYTE      IIC_Command
      01001E12H   LINE      CODE     ---       #109
      01001E12H   LINE      CODE     ---       #110
      01001E12H   LINE      CODE     ---       #111
      01001E12H   LINE      CODE     ---       #112
      01001E12H   LINE      CODE     ---       #113
      01001E15H   LINE      CODE     ---       #114
      01001E17H   LINE      CODE     ---       #115
      01001E17H   LINE      CODE     ---       #116
      01001E17H   LINE      CODE     ---       #117
      01001E1AH   LINE      CODE     ---       #118
      ---         BLOCKEND  ---      ---       LVL=0

      01001E1DH   BLOCK     CODE     ---       LVL=0
      00000004H   SYMBOL    DATA     BYTE      IIC_Data
      01001E1DH   LINE      CODE     ---       #128
      01001E1DH   LINE      CODE     ---       #129
      01001E1DH   LINE      CODE     ---       #130
      01001E1DH   LINE      CODE     ---       #131
      01001E1DH   LINE      CODE     ---       #132
      01001E20H   LINE      CODE     ---       #133
      01001E22H   LINE      CODE     ---       #134
      01001E22H   LINE      CODE     ---       #135
      01001E22H   LINE      CODE     ---       #136
      01001E25H   LINE      CODE     ---       #137
      ---         BLOCKEND  ---      ---       LVL=0

      01001D9CH   BLOCK     CODE     ---       LVL=0
      00000002H   SYMBOL    DATA     WORD      dat
      00000004H   SYMBOL    DATA     WORD      cmd
      01001D9CH   LINE      CODE     ---       #147
      01001DA0H   LINE      CODE     ---       #148
      01001DA0H   LINE      CODE     ---       #149
      01001DA4H   LINE      CODE     ---       #150
      01001DA4H   LINE      CODE     ---       #151
      01001DA7H   LINE      CODE     ---       #152
      01001DA7H   LINE      CODE     ---       #154
      01001DA7H   LINE      CODE     ---       #155
      01001DACH   LINE      CODE     ---       #156
      01001DACH   LINE      CODE     ---       #157
      ---         BLOCKEND  ---      ---       LVL=0

      01001C64H   BLOCK     CODE     ---       LVL=0
      00000001H   SYMBOL    DATA     BYTE      x
      00000005H   SYMBOL    DATA     BYTE      y
      01001C64H   LINE      CODE     ---       #168
      01001C66H   LINE      CODE     ---       #169
      01001C66H   LINE      CODE     ---       #170
      01001C73H   LINE      CODE     ---       #171
      01001C84H   LINE      CODE     ---       #172
      ---         BLOCKEND  ---      ---       LVL=0

      01001B9FH   BLOCK     CODE     ---       LVL=0
      01001B9FH   BLOCK     CODE     NEAR LAB  LVL=1
      00000001H   SYMBOL    DATA     BYTE      i
LX51 LINKER/LOCATER V4.66.97.0                                                        05/18/2022  18:07:15  PAGE 42


      00000043H   SYMBOL    DATA     BYTE      n
      ---         BLOCKEND  ---      ---       LVL=1
      01001B9FH   LINE      CODE     ---       #213
      01001B9FH   LINE      CODE     ---       #214
      01001B9FH   LINE      CODE     ---       #216
      01001BA6H   LINE      CODE     ---       #217
      01001BA6H   LINE      CODE     ---       #218
      01001BA9H   LINE      CODE     ---       #219
      01001BADH   LINE      CODE     ---       #220
      01001BB6H   LINE      CODE     ---       #221
      01001BD2H   LINE      CODE     ---       #222
      01001BD5H   LINE      CODE     ---       #223
      ---         BLOCKEND  ---      ---       LVL=0
      00000001H   SYMBOL    DATA     BYTE      i

      0100194FH   BLOCK     CODE     ---       LVL=0
      00000007H   SYMBOL    DATA     BYTE      x
      00000005H   SYMBOL    DATA     BYTE      y
      00000003H   SYMBOL    DATA     BYTE      chr
      0000004FH   SYMBOL    DATA     BYTE      Char_Size
      0100194FH   BLOCK     CODE     NEAR LAB  LVL=1
      00000050H   SYMBOL    DATA     BYTE      c
      00000001H   SYMBOL    DATA     BYTE      i
      ---         BLOCKEND  ---      ---       LVL=1
      0100194FH   LINE      CODE     ---       #256
      0100194FH   LINE      CODE     ---       #257
      0100194FH   LINE      CODE     ---       #258
      01001953H   LINE      CODE     ---       #259
      01001958H   LINE      CODE     ---       #260
      01001966H   LINE      CODE     ---       #261
      0100196CH   LINE      CODE     ---       #262
      0100196CH   LINE      CODE     ---       #269
      0100196CH   LINE      CODE     ---       #271
      0100196CH   LINE      CODE     ---       #272
      0100196FH   LINE      CODE     ---       #273
      0100197BH   LINE      CODE     ---       #274
      010019A4H   LINE      CODE     ---       #275
      010019A4H   LINE      CODE     ---       #276
      ---         BLOCKEND  ---      ---       LVL=0

      01001D47H   BLOCK     CODE     ---       LVL=0
      0000004CH   SYMBOL    DATA     BYTE      m
      00000001H   SYMBOL    DATA     BYTE      n
      01001D4BH   BLOCK     CODE     NEAR LAB  LVL=1
      00000006H   SYMBOL    DATA     WORD      result
      ---         BLOCKEND  ---      ---       LVL=1
      01001D47H   LINE      CODE     ---       #286
      01001D4BH   LINE      CODE     ---       #287
      01001D4BH   LINE      CODE     ---       #288
      01001D4FH   LINE      CODE     ---       #289
      01001D5EH   LINE      CODE     ---       #290
      01001D5EH   LINE      CODE     ---       #292
      ---         BLOCKEND  ---      ---       LVL=0

      010017D0H   BLOCK     CODE     ---       LVL=0
      00000043H   SYMBOL    DATA     BYTE      x
      00000044H   SYMBOL    DATA     BYTE      y
      00000045H   SYMBOL    DATA     WORD      num
      00000047H   SYMBOL    DATA     BYTE      len
      00000048H   SYMBOL    DATA     BYTE      Num_size
      010017D8H   BLOCK     CODE     NEAR LAB  LVL=1
      00000049H   SYMBOL    DATA     BYTE      t
      0000004AH   SYMBOL    DATA     BYTE      temp
      0000004BH   SYMBOL    DATA     BYTE      enshow
      ---         BLOCKEND  ---      ---       LVL=1
LX51 LINKER/LOCATER V4.66.97.0                                                        05/18/2022  18:07:15  PAGE 43


      010017D0H   LINE      CODE     ---       #306
      010017D8H   LINE      CODE     ---       #307
      010017D8H   LINE      CODE     ---       #309
      010017DBH   LINE      CODE     ---       #310
      010017E4H   LINE      CODE     ---       #311
      010017E4H   LINE      CODE     ---       #312
      01001806H   LINE      CODE     ---       #313
      01001814H   LINE      CODE     ---       #314
      01001814H   LINE      CODE     ---       #315
      01001818H   LINE      CODE     ---       #316
      01001818H   LINE      CODE     ---       #317
      01001820H   LINE      CODE     ---       #318
      01001822H   LINE      CODE     ---       #319
      01001822H   LINE      CODE     ---       #320
      01001825H   LINE      CODE     ---       #321
      01001825H   LINE      CODE     ---       #322
      01001835H   LINE      CODE     ---       #323
      01001839H   LINE      CODE     ---       #324
      ---         BLOCKEND  ---      ---       LVL=0

      01001B5BH   BLOCK     CODE     ---       LVL=0
      00000043H   SYMBOL    DATA     BYTE      x
      00000044H   SYMBOL    DATA     BYTE      y
      00000045H   SYMBOL    DATA     ---       chr
      00000048H   SYMBOL    DATA     BYTE      Char_Size
      01001B65H   BLOCK     CODE     NEAR LAB  LVL=1
      00000049H   SYMBOL    DATA     BYTE      j
      ---         BLOCKEND  ---      ---       LVL=1
      01001B5BH   LINE      CODE     ---       #334
      01001B65H   LINE      CODE     ---       #335
      01001B65H   LINE      CODE     ---       #336
      01001B68H   LINE      CODE     ---       #337
      01001B7AH   LINE      CODE     ---       #338
      01001B7AH   LINE      CODE     ---       #339
      01001B84H   LINE      CODE     ---       #340
      01001B8AH   LINE      CODE     ---       #341
      01001B93H   LINE      CODE     ---       #342
      01001B93H   LINE      CODE     ---       #343
      01001B96H   LINE      CODE     ---       #344
      01001B9AH   LINE      CODE     ---       #345
      01001B9AH   LINE      CODE     ---       #346
      01001B9CH   LINE      CODE     ---       #347
      01001B9EH   LINE      CODE     ---       #348
      ---         BLOCKEND  ---      ---       LVL=0

      0100174DH   BLOCK     CODE     ---       LVL=0
      0100174DH   LINE      CODE     ---       #384
      0100174DH   LINE      CODE     ---       #385
      0100174DH   LINE      CODE     ---       #386
      01001752H   LINE      CODE     ---       #387
      01001756H   LINE      CODE     ---       #388
      0100175BH   LINE      CODE     ---       #389
      01001760H   LINE      CODE     ---       #390
      01001765H   LINE      CODE     ---       #391
      0100176AH   LINE      CODE     ---       #392
      0100176FH   LINE      CODE     ---       #393
      01001774H   LINE      CODE     ---       #394
      01001779H   LINE      CODE     ---       #395
      0100177EH   LINE      CODE     ---       #396
      01001783H   LINE      CODE     ---       #397
      01001788H   LINE      CODE     ---       #398
      0100178DH   LINE      CODE     ---       #399
      01001791H   LINE      CODE     ---       #401
      01001796H   LINE      CODE     ---       #402
      0100179BH   LINE      CODE     ---       #404
LX51 LINKER/LOCATER V4.66.97.0                                                        05/18/2022  18:07:15  PAGE 44


      010017A0H   LINE      CODE     ---       #405
      010017A5H   LINE      CODE     ---       #407
      010017AAH   LINE      CODE     ---       #408
      010017AFH   LINE      CODE     ---       #410
      010017B4H   LINE      CODE     ---       #411
      010017B9H   LINE      CODE     ---       #413
      010017BEH   LINE      CODE     ---       #414
      010017C7H   LINE      CODE     ---       #416
      010017C7H   LINE      CODE     ---       #417
      010017C7H   LINE      CODE     ---       #419
      ---         BLOCKEND  ---      ---       LVL=0

      ---         MODULE    ---      ---       ?RTX51_TINY_KERNAL
      010007F4H   PUBLIC    CODE     ---       ?RTX?SET_ISR
      0000000CH   PUBLIC    DATA     ---       ?RTX_CURRENTTASK
      00000007H   PUBLIC    DATA     ---       ?RTX_NEXTID
      01000837H   PUBLIC    CODE     ---       ?RTX_NEXTTASK
      000000FFH   PUBLIC    NUMBER   ---       ?RTX_RAMTOP
      01001DCDH   PUBLIC    CODE     ---       ?RTX_TASKENTRY
      01000916H   PUBLIC    CODE     ---       ?RTX_TASKIDX
      00000079H   PUBLIC    IDATA    ---       ?RTX_TASKSP
      00000069H   PUBLIC    IDATA    ---       ?RTX_TASKSTATUS
      010008DAH   PUBLIC    CODE     ---       MAIN
      01000820H   PUBLIC    CODE     ---       OS_SWITCH_TASK
      01000829H   SYMBOL    CODE     ---       ?C0001
      01000833H   SYMBOL    CODE     ---       ?C0003
      01000838H   SYMBOL    CODE     ---       ?C0005
      01000852H   SYMBOL    CODE     ---       ?C0007
      01000854H   SYMBOL    CODE     ---       ?C0009
      0100085EH   SYMBOL    CODE     ---       ?C0011
      0100088BH   SYMBOL    CODE     ---       ?C0012
      01000871H   SYMBOL    CODE     ---       ?C0013
      01000876H   SYMBOL    CODE     ---       ?C0015
      01000881H   SYMBOL    CODE     ---       ?C0016
      00000000H   SYMBOL    NUMBER   ---       ?RTX51_TINY_KERNAL
      0000FC18H   SYMBOL    NUMBER   ---       ?RTX_CLOCK
      00000008H   SYMBOL    NUMBER   ---       ?RTX_REGISTERBANK
      0000000DH   SYMBOL    DATA     ---       ?RTX_ROBINTIME
      0000000AH   SYMBOL    DATA     ---       ?RTX_SAVEACC
      0000000BH   SYMBOL    DATA     ---       ?RTX_SAVEPSW
      010007A5H   SYMBOL    CODE     ---       ?RTX_STACKERROR
      010007F8H   SYMBOL    CODE     ---       ?RTX_TASKSWITCHING
      00000020H.7 SYMBOL    BIT      ---       ?RTX_TS_DELAY
      000000E0H   SYMBOL    DATA     ---       ACC
      000000F0H   SYMBOL    DATA     ---       B
      00000005H   SYMBOL    NUMBER   ---       B_ACTIVE
      00000007H   SYMBOL    NUMBER   ---       B_IVL
      00000007H   SYMBOL    NUMBER   ---       B_RDY
      00000004H   SYMBOL    NUMBER   ---       B_READY
      00000006H   SYMBOL    NUMBER   ---       B_ROBIN
      00000002H   SYMBOL    NUMBER   ---       B_SIGNAL
      00000003H   SYMBOL    NUMBER   ---       B_TIMEOUT
      00000000H   SYMBOL    NUMBER   ---       B_WAITSIG
      00000001H   SYMBOL    NUMBER   ---       B_WAITTIM
      010007F5H   SYMBOL    CODE     ---       CHECKROBINTIME
      010007CFH   SYMBOL    CODE     ---       CHECKSTACK
      00000000H   SYMBOL    NUMBER   ---       CODE_BANKING
      00000000H   SYMBOL    NUMBER   ---       CPU_IDLE_CODE
      00000083H   SYMBOL    DATA     ---       DPH
      00000082H   SYMBOL    DATA     ---       DPL
      000000A8H.7 SYMBOL    BIT      ---       EA
      000000A8H.4 SYMBOL    BIT      ---       ES
      000000A8H.1 SYMBOL    BIT      ---       ET0
      000000A8H.3 SYMBOL    BIT      ---       ET1
      000000A8H.0 SYMBOL    BIT      ---       EX0
LX51 LINKER/LOCATER V4.66.97.0                                                        05/18/2022  18:07:15  PAGE 45


      000000A8H.2 SYMBOL    BIT      ---       EX1
      00000014H   SYMBOL    NUMBER   ---       FREE_STACK
      010007A9H   SYMBOL    CODE     ---       HW_TIMER
      000000A8H   SYMBOL    DATA     ---       IE
      00000088H.1 SYMBOL    BIT      ---       IE0
      00000088H.3 SYMBOL    BIT      ---       IE1
      000003E8H   SYMBOL    NUMBER   ---       INT_CLOCK
      00000001H   SYMBOL    NUMBER   ---       INT_REGBANK
      00000088H.0 SYMBOL    BIT      ---       IT0
      00000088H.2 SYMBOL    BIT      ---       IT1
      00000020H   SYMBOL    NUMBER   ---       K_ACTIVE
      00000080H   SYMBOL    NUMBER   ---       K_IVL
      00000080H   SYMBOL    NUMBER   ---       K_RDY
      00000010H   SYMBOL    NUMBER   ---       K_READY
      00000040H   SYMBOL    NUMBER   ---       K_ROBIN
      00000001H   SYMBOL    NUMBER   ---       K_SIG
      00000002H   SYMBOL    NUMBER   ---       K_TMO
      00000000H   SYMBOL    NUMBER   ---       LONG_USR_INTR
      010008E3H   SYMBOL    CODE     ---       MAIN1
      010008EDH   SYMBOL    CODE     ---       MAIN1X
      010008E8H   SYMBOL    CODE     ---       MAIN2
      010008AEH   SYMBOL    CODE     ---       NOEVENT
      010007F4H   SYMBOL    CODE     ---       NOROBINTIMEOUT
      010007EBH   SYMBOL    CODE     ---       NOTIMEOUT
      010007E9H   SYMBOL    CODE     ---       NOWAITTIMEOUT
      01000820H   SYMBOL    CODE     ---       OS_SWITCH_TASK1
      00000087H   SYMBOL    DATA     ---       PCON
      000000D0H   SYMBOL    DATA     ---       PSW
      000000FFH   SYMBOL    NUMBER   ---       RAMTOP
      00000080H   SYMBOL    NUMBER   ---       RDY_EVENT
      010008BAH   SYMBOL    CODE     ---       ROBINON
      010008A2H   SYMBOL    CODE     ---       SIGNALOFF
      010008AEH   SYMBOL    CODE     ---       SIGNALON
      00000004H   SYMBOL    NUMBER   ---       SIG_EVENT
      00000081H   SYMBOL    DATA     ---       SP
      0000006AH   SYMBOL    IDATA    ---       TASKSTATE
      00000088H   SYMBOL    DATA     ---       TCON
      00000088H.5 SYMBOL    BIT      ---       TF0
      00000088H.7 SYMBOL    BIT      ---       TF1
      0000008CH   SYMBOL    DATA     ---       TH0
      0000008DH   SYMBOL    DATA     ---       TH1
      010008AAH   SYMBOL    CODE     ---       TIMEOUTON
      010007AAH   SYMBOL    CODE     ---       TIMERINT
      010007DBH   SYMBOL    CODE     ---       TIMERLOOP
      00000069H   SYMBOL    IDATA    ---       TIMERVAL
      00000064H   SYMBOL    NUMBER   ---       TIMESHARING
      0000008AH   SYMBOL    DATA     ---       TL0
      0000008BH   SYMBOL    DATA     ---       TL1
      00000089H   SYMBOL    DATA     ---       TMOD
      00000008H   SYMBOL    NUMBER   ---       TMO_EVENT
      00000088H.4 SYMBOL    BIT      ---       TR0
      00000088H.6 SYMBOL    BIT      ---       TR1
      0100000BH   LINE      CODE     ---       #271
      010007A5H   LINE      CODE     ---       #279
      010007A7H   LINE      CODE     ---       #279
      010007A9H   LINE      CODE     ---       #282
      010007AAH   LINE      CODE     ---       #299
      010007ADH   LINE      CODE     ---       #301
      010007B0H   LINE      CODE     ---       #302
      010007B3H   LINE      CODE     ---       #303
      010007B5H   LINE      CODE     ---       #305
      010007B7H   LINE      CODE     ---       #306
      010007B9H   LINE      CODE     ---       #307
      010007BBH   LINE      CODE     ---       #308
      010007BDH   LINE      CODE     ---       #309
LX51 LINKER/LOCATER V4.66.97.0                                                        05/18/2022  18:07:15  PAGE 46


      010007BFH   LINE      CODE     ---       #310
      010007C1H   LINE      CODE     ---       #311
      010007C3H   LINE      CODE     ---       #312
      010007C5H   LINE      CODE     ---       #316
      010007C6H   LINE      CODE     ---       #317
      010007C8H   LINE      CODE     ---       #318
      010007C9H   LINE      CODE     ---       #319
      010007CAH   LINE      CODE     ---       #320
      010007CDH   LINE      CODE     ---       #321
      010007CFH   LINE      CODE     ---       #322
      010007D0H   LINE      CODE     ---       #323
      010007D2H   LINE      CODE     ---       #324
      010007D5H   LINE      CODE     ---       #325
      010007D7H   LINE      CODE     ---       #329
      010007D9H   LINE      CODE     ---       #330
      010007DBH   LINE      CODE     ---       #331
      010007DCH   LINE      CODE     ---       #332
      010007DDH   LINE      CODE     ---       #333
      010007DEH   LINE      CODE     ---       #334
      010007E0H   LINE      CODE     ---       #335
      010007E2H   LINE      CODE     ---       #336
      010007E3H   LINE      CODE     ---       #337
      010007E6H   LINE      CODE     ---       #338
      010007E8H   LINE      CODE     ---       #339
      010007E9H   LINE      CODE     ---       #340
      010007EBH   LINE      CODE     ---       #341
      010007ECH   LINE      CODE     ---       #342
      010007EEH   LINE      CODE     ---       #344
      010007EFH   LINE      CODE     ---       #345
      010007F1H   LINE      CODE     ---       #360
      010007F4H   LINE      CODE     ---       #366
      010007F5H   LINE      CODE     ---       #367
      010007F8H   LINE      CODE     ---       #370
      010007FAH   LINE      CODE     ---       #371
      010007FCH   LINE      CODE     ---       #372
      010007FEH   LINE      CODE     ---       #373
      01000800H   LINE      CODE     ---       #374
      01000802H   LINE      CODE     ---       #375
      01000804H   LINE      CODE     ---       #376
      01000806H   LINE      CODE     ---       #377
      01000808H   LINE      CODE     ---       #378
      0100080AH   LINE      CODE     ---       #379
      0100080CH   LINE      CODE     ---       #380
      0100080EH   LINE      CODE     ---       #381
      01000810H   LINE      CODE     ---       #382
      01000812H   LINE      CODE     ---       #387
      01000814H   LINE      CODE     ---       #388
      01000815H   LINE      CODE     ---       #389
      01000817H   LINE      CODE     ---       #390
      01000818H   LINE      CODE     ---       #391
      0100081AH   LINE      CODE     ---       #392
      0100081CH   LINE      CODE     ---       #393
      0100081DH   LINE      CODE     ---       #394
      0100081EH   LINE      CODE     ---       #395
      01000820H   LINE      CODE     ---       #424
      01000822H   LINE      CODE     ---       #426
      01000824H   LINE      CODE     ---       #427
      01000825H   LINE      CODE     ---       #429
      01000826H   LINE      CODE     ---       #430
      01000828H   LINE      CODE     ---       #431
      01000829H   LINE      CODE     ---       #434
      0100082AH   LINE      CODE     ---       #435
      0100082BH   LINE      CODE     ---       #436
      0100082CH   LINE      CODE     ---       #444
      0100082FH   LINE      CODE     ---       #445
LX51 LINKER/LOCATER V4.66.97.0                                                        05/18/2022  18:07:15  PAGE 47


      01000831H   LINE      CODE     ---       #446
      01000833H   LINE      CODE     ---       #449
      01000834H   LINE      CODE     ---       #450
      01000837H   LINE      CODE     ---       #458
      01000838H   LINE      CODE     ---       #462
      0100083AH   LINE      CODE     ---       #463
      0100083BH   LINE      CODE     ---       #464
      0100083CH   LINE      CODE     ---       #465
      0100083EH   LINE      CODE     ---       #468
      01000840H   LINE      CODE     ---       #470
      01000842H   LINE      CODE     ---       #471
      01000844H   LINE      CODE     ---       #472
      01000845H   LINE      CODE     ---       #473
      01000846H   LINE      CODE     ---       #474
      01000847H   LINE      CODE     ---       #476
      01000849H   LINE      CODE     ---       #478
      0100084AH   LINE      CODE     ---       #479
      0100084BH   LINE      CODE     ---       #480
      0100084DH   LINE      CODE     ---       #481
      01000850H   LINE      CODE     ---       #482
      01000852H   LINE      CODE     ---       #484
      01000853H   LINE      CODE     ---       #485
      01000854H   LINE      CODE     ---       #490
      01000855H   LINE      CODE     ---       #491
      01000856H   LINE      CODE     ---       #492
      01000858H   LINE      CODE     ---       #496
      01000859H   LINE      CODE     ---       #497
      0100085AH   LINE      CODE     ---       #498
      0100085CH   LINE      CODE     ---       #499
      0100085EH   LINE      CODE     ---       #505
      01000860H   LINE      CODE     ---       #506
      01000861H   LINE      CODE     ---       #507
      01000862H   LINE      CODE     ---       #508
      01000864H   LINE      CODE     ---       #510
      01000866H   LINE      CODE     ---       #511
      01000868H   LINE      CODE     ---       #512
      01000869H   LINE      CODE     ---       #513
      0100086AH   LINE      CODE     ---       #516
      0100086CH   LINE      CODE     ---       #517
      0100086FH   LINE      CODE     ---       #518
      01000871H   LINE      CODE     ---       #520
      01000872H   LINE      CODE     ---       #522
      01000873H   LINE      CODE     ---       #523
      01000874H   LINE      CODE     ---       #524
      01000875H   LINE      CODE     ---       #525
      01000876H   LINE      CODE     ---       #529
      01000878H   LINE      CODE     ---       #530
      01000879H   LINE      CODE     ---       #531
      0100087BH   LINE      CODE     ---       #535
      0100087DH   LINE      CODE     ---       #536
      0100087EH   LINE      CODE     ---       #537
      0100087FH   LINE      CODE     ---       #539
      01000881H   LINE      CODE     ---       #543
      01000883H   LINE      CODE     ---       #544
      01000885H   LINE      CODE     ---       #545
      01000886H   LINE      CODE     ---       #546
      01000887H   LINE      CODE     ---       #548
      01000889H   LINE      CODE     ---       #549
      0100088BH   LINE      CODE     ---       #555
      0100088EH   LINE      CODE     ---       #559
      01000890H   LINE      CODE     ---       #560
      01000891H   LINE      CODE     ---       #561
      01000893H   LINE      CODE     ---       #562
      01000894H   LINE      CODE     ---       #563
      01000896H   LINE      CODE     ---       #564
LX51 LINKER/LOCATER V4.66.97.0                                                        05/18/2022  18:07:15  PAGE 48


      01000898H   LINE      CODE     ---       #565
      01000899H   LINE      CODE     ---       #567
      0100089CH   LINE      CODE     ---       #571
      0100089FH   LINE      CODE     ---       #572
      010008A2H   LINE      CODE     ---       #576
      010008A4H   LINE      CODE     ---       #577
      010008A7H   LINE      CODE     ---       #578
      010008AAH   LINE      CODE     ---       #580
      010008ACH   LINE      CODE     ---       #581
      010008AEH   LINE      CODE     ---       #583
      010008B0H   LINE      CODE     ---       #584
      010008B1H   LINE      CODE     ---       #585
      010008B3H   LINE      CODE     ---       #587
      010008B5H   LINE      CODE     ---       #588
      010008B7H   LINE      CODE     ---       #594
      010008B9H   LINE      CODE     ---       #595
      010008BAH   LINE      CODE     ---       #608
      010008BBH   LINE      CODE     ---       #609
      010008BDH   LINE      CODE     ---       #614
      010008BFH   LINE      CODE     ---       #615
      010008C1H   LINE      CODE     ---       #616
      010008C3H   LINE      CODE     ---       #617
      010008C5H   LINE      CODE     ---       #618
      010008C7H   LINE      CODE     ---       #619
      010008C9H   LINE      CODE     ---       #620
      010008CBH   LINE      CODE     ---       #621
      010008CDH   LINE      CODE     ---       #622
      010008CFH   LINE      CODE     ---       #623
      010008D1H   LINE      CODE     ---       #624
      010008D3H   LINE      CODE     ---       #625
      010008D5H   LINE      CODE     ---       #626
      010008D7H   LINE      CODE     ---       #627
      010008D9H   LINE      CODE     ---       #628
      010008DAH   LINE      CODE     ---       #642
      010008DCH   LINE      CODE     ---       #643
      010008DEH   LINE      CODE     ---       #644
      010008E0H   LINE      CODE     ---       #645
      010008E2H   LINE      CODE     ---       #646
      010008E3H   LINE      CODE     ---       #647
      010008E4H   LINE      CODE     ---       #648
      010008E6H   LINE      CODE     ---       #649
      010008E8H   LINE      CODE     ---       #650
      010008EAH   LINE      CODE     ---       #651
      010008EBH   LINE      CODE     ---       #652
      010008EDH   LINE      CODE     ---       #653
      010008EEH   LINE      CODE     ---       #654
      010008EFH   LINE      CODE     ---       #655
      010008F0H   LINE      CODE     ---       #656
      010008F1H   LINE      CODE     ---       #657
      010008F3H   LINE      CODE     ---       #658
      010008F5H   LINE      CODE     ---       #659
      010008F7H   LINE      CODE     ---       #660
      010008FAH   LINE      CODE     ---       #661
      010008FCH   LINE      CODE     ---       #662
      010008FDH   LINE      CODE     ---       #663
      010008FFH   LINE      CODE     ---       #664
      01000900H   LINE      CODE     ---       #665
      01000901H   LINE      CODE     ---       #666
      01000903H   LINE      CODE     ---       #668
      01000906H   LINE      CODE     ---       #670
      01000909H   LINE      CODE     ---       #671
      0100090CH   LINE      CODE     ---       #672
      0100090FH   LINE      CODE     ---       #673
      01000911H   LINE      CODE     ---       #674
      01000913H   LINE      CODE     ---       #675
LX51 LINKER/LOCATER V4.66.97.0                                                        05/18/2022  18:07:15  PAGE 49


      01000915H   LINE      CODE     ---       #676

      ---         MODULE    ---      ---       ?RTX51_TINY_OS_CREATE
      01000917H   PUBLIC    CODE     ---       _OS_CREATE_TASK

      ---         MODULE    ---      ---       ?RTX51_TINY_OS_DELETE
      010009A0H   PUBLIC    CODE     ---       _OS_DELETE_TASK

      ---         MODULE    ---      ---       ?RTX51_TINY_OS_SEND_SIGNAL
      01000A29H   PUBLIC    CODE     ---       _ISR_SEND_SIGNAL
      01000A29H   PUBLIC    CODE     ---       _OS_SEND_SIGNAL

      ---         MODULE    ---      ---       ?RTX51_TINY_OS_WAIT
      01000A50H   PUBLIC    CODE     ---       _OS_WAIT
      01000A50H   PUBLIC    CODE     ---       _OS_WAIT1
      01000A50H   PUBLIC    CODE     ---       _OS_WAIT2

      ---         MODULE    ---      ---       ?C?FPADD
      0100002DH   PUBLIC    CODE     ---       ?C?FPADD
      01000029H   PUBLIC    CODE     ---       ?C?FPSUB

      ---         MODULE    ---      ---       ?C?FPMUL
      0100011EH   PUBLIC    CODE     ---       ?C?FPMUL

      ---         MODULE    ---      ---       ?C?FCAST
      0100022EH   PUBLIC    CODE     ---       ?C?FCASTC
      01000229H   PUBLIC    CODE     ---       ?C?FCASTI
      01000224H   PUBLIC    CODE     ---       ?C?FCASTL

      ---         MODULE    ---      ---       ?C?CASTF
      01000262H   PUBLIC    CODE     ---       ?C?CASTF

      ---         MODULE    ---      ---       ?C?FPGETOPN
      01000299H   PUBLIC    CODE     ---       ?C?FPGETOPN2
      010002CEH   PUBLIC    CODE     ---       ?C?FPNANRESULT
      010002D8H   PUBLIC    CODE     ---       ?C?FPOVERFLOW
      010002B0H   PUBLIC    CODE     ---       ?C?FPRESULT
      010002C4H   PUBLIC    CODE     ---       ?C?FPRESULT2
      010002D5H   PUBLIC    CODE     ---       ?C?FPUNDERFLOW

      ---         MODULE    ---      ---       ?C_STARTUP
      01000000H   PUBLIC    CODE     ---       ?C_STARTUP

      ---         MODULE    ---      ---       ?C?CLDPTR
      010002E3H   PUBLIC    CODE     ---       ?C?CLDPTR

      ---         MODULE    ---      ---       ?C?CLDOPTR
      010002FCH   PUBLIC    CODE     ---       ?C?CLDOPTR

      ---         MODULE    ---      ---       ?C?CSTPTR
      01000329H   PUBLIC    CODE     ---       ?C?CSTPTR

      ---         MODULE    ---      ---       ?C?IMUL
      0100033BH   PUBLIC    CODE     ---       ?C?IMUL

      ---         MODULE    ---      ---       ?C?UIDIV
      0100034DH   PUBLIC    CODE     ---       ?C?UIDIV

      ---         MODULE    ---      ---       ?C?SIDIV
      010003A2H   PUBLIC    CODE     ---       ?C?SIDIV

      ---         MODULE    ---      ---       ?C?LNEG
      010003D8H   PUBLIC    CODE     ---       ?C?LNEG

      ---         MODULE    ---      ---       ?C_INIT
LX51 LINKER/LOCATER V4.66.97.0                                                        05/18/2022  18:07:15  PAGE 50


      01001708H   PUBLIC    CODE     ---       ?C_START



*** WARNING L48: IGNORED RECURSIVE CALL
    CALLED:  OLED
    CALLER:  _WRITE_IIC_DATA/OLED

*** WARNING L48: IGNORED RECURSIVE CALL
    CALLED:  OLED
    CALLER:  _WRITE_IIC_BYTE/OLED

*** WARNING L48: IGNORED RECURSIVE CALL
    CALLED:  OLED
    CALLER:  _WRITE_IIC_COMMAND/OLED

Program Size: data=124.0 xdata=110 const=687 code=7743
LX51 RUN COMPLETE.  3 WARNING(S),  0 ERROR(S)
